ccopy_reg
_reconstructor
p0
(cjobmanager.common
Job
p1
c__builtin__
object
p2
Ntp3
Rp4
(dp5
S'lastStateChange'
p6
F1591997048.771803
sS'retries'
p7
I0
sS'errors'
p8
I0
sS'state'
p9
S'success'
p10
sS'needs_arcclean'
p11
I00
sS'gridJobIds'
p12
(lp13
S'https://maister.hpc-rivr.um.si:443/arex/sVJMDm1613wnQ1W8MmmAVtPoemdcfmABFKDmgyHKDmASGKDmtV08Nn'
p14
asS'id'
p15
S'./carcinogenesis/fold8/eksistencna_kriza0.05_1.0_1.0_0.6_4'
p16
sb.