ccopy_reg
_reconstructor
p0
(cjobmanager.common
Job
p1
c__builtin__
object
p2
Ntp3
Rp4
(dp5
S'lastStateChange'
p6
F1592593021.931515
sS'retries'
p7
I3
sS'errors'
p8
I0
sS'state'
p9
S'success'
p10
sS'needs_arcclean'
p11
I00
sS'gridJobIds'
p12
(lp13
S'https://trebuchet.ijs.si:443/arex/x69KDmSNS6wnOvrWonLn5monABFKDmABFKDmzJKKDm8nGKDmbug34m'
p14
aS'https://trebuchet.ijs.si:443/arex/CHeKDmbCT6wnOvrWonLn5monABFKDmABFKDmzJKKDmbyGKDm9MqvLn'
p15
aS'https://trebuchet.ijs.si:443/arex/l0INDmyRT6wnOvrWonLn5monABFKDmABFKDmzJKKDmy2GKDmlUaBUo'
p16
aS'https://trebuchet.ijs.si:443/arex/3ENLDmDhT6wnOvrWonLn5monABFKDmABFKDmzJKKDmu4GKDm3FQoGo'
p17
asS'id'
p18
S'./mutagenesis/fold2'
p19
sb.