ccopy_reg
_reconstructor
p0
(cjobmanager.common
Job
p1
c__builtin__
object
p2
Ntp3
Rp4
(dp5
S'lastStateChange'
p6
F1590840678.501297
sS'retries'
p7
I2
sS'errors'
p8
I0
sS'state'
p9
S'success'
p10
sS'needs_arcclean'
p11
I00
sS'gridJobIds'
p12
(lp13
S'https://maister.hpc-rivr.um.si:443/arex/c97KDmrXBzwnQ1W8MmmAVtPoemdcfmABFKDmO6HKDmqJIKDmaITXnn'
p14
aS'https://nsc.ijs.si:443/arex/BrlNDmIACzwnWiFSGmlJ8khoABFKDmABFKDmYpJKDmnuGKDmLB3jZm'
p15
aS'https://nsc.ijs.si:443/arex/y2YKDmVIDzwnWiFSGmlJ8khoABFKDmABFKDmYpJKDmc0GKDmlihW6n'
p16
asS'id'
p17
S'./yelp_small/fold7/nec_rone_0.6_2'
p18
sb.