ccopy_reg
_reconstructor
p0
(cjobmanager.common
Job
p1
c__builtin__
object
p2
Ntp3
Rp4
(dp5
S'lastStateChange'
p6
F1592567154.81436
sS'retries'
p7
I1
sS'errors'
p8
I0
sS'state'
p9
S'success'
p10
sS'needs_arcclean'
p11
I00
sS'gridJobIds'
p12
(lp13
S'https://trebuchet.ijs.si:443/arex/NMbNDmrXS6wnOvrWonLn5monABFKDmABFKDmzJKKDmeqGKDmhajvjm'
p14
aS'https://trebuchet.ijs.si:443/arex/1KsNDm1tT6wnOvrWonLn5monABFKDmABFKDmzJKKDmP9GKDmaMgZTo'
p15
asS'id'
p16
S'./mutagenesis/fold8/tree14'
p17
sb.