ccopy_reg
_reconstructor
p0
(cjobmanager.common
Job
p1
c__builtin__
object
p2
Ntp3
Rp4
(dp5
S'lastStateChange'
p6
F1575456487.590916
sS'retries'
p7
I0
sS'errors'
p8
I0
sS'state'
p9
S'success'
p10
sS'needs_arcclean'
p11
I00
sS'gridJobIds'
p12
(lp13
S'https://maister.hpc-rivr.um.si:443/arex/G8uKDmGwewvnQ1W8MmmAVtPoemdcfmABFKDmMHLKDme6FKDmUtrRrn'
p14
asS'id'
p15
S'./basket/fold7/tocka0.4_1.0_1.0_0.4_8'
p16
sb.