ccopy_reg
_reconstructor
p0
(cjobmanager.common
Job
p1
c__builtin__
object
p2
Ntp3
Rp4
(dp5
S'lastStateChange'
p6
F1592565810.072198
sS'retries'
p7
I1
sS'errors'
p8
I0
sS'state'
p9
S'success'
p10
sS'needs_arcclean'
p11
I00
sS'gridJobIds'
p12
(lp13
S'https://trebuchet.ijs.si:443/arex/IAuKDm2US6wnOvrWonLn5monABFKDmABFKDmzJKKDmmpGKDmtETFGm'
p14
aS'https://trebuchet.ijs.si:443/arex/B39NDmhlT6wnOvrWonLn5monABFKDmABFKDmzJKKDmO6GKDmG1kuAn'
p15
asS'id'
p16
S'./mutagenesis/fold9/tree18'
p17
sb.