ccopy_reg
_reconstructor
p0
(cjobmanager.common
Job
p1
c__builtin__
object
p2
Ntp3
Rp4
(dp5
S'lastStateChange'
p6
F1590086906.573117
sS'retries'
p7
I2
sS'errors'
p8
I0
sS'state'
p9
S'success'
p10
sS'needs_arcclean'
p11
I00
sS'gridJobIds'
p12
(lp13
S'https://maister.hpc-rivr.um.si:443/arex/hTkLDmQu4vwnQ1W8MmmAVtPoemdcfmABFKDmO6HKDmaAGKDm3DzsRn'
p14
asS'id'
p15
S'./imdb_big/fold7/eksistencna_kriza0.6_1.0_0.6_0.2_2'
p16
sb.