ccopy_reg
_reconstructor
p0
(cjobmanager.common
Job
p1
c__builtin__
object
p2
Ntp3
Rp4
(dp5
S'lastStateChange'
p6
F1589764232.832788
sS'retries'
p7
I1
sS'errors'
p8
I0
sS'state'
p9
S'success'
p10
sS'needs_arcclean'
p11
I00
sS'gridJobIds'
p12
(lp13
S'https://maister.hpc-rivr.um.si:443/arex/wsuMDmS2ltwnQ1W8MmmAVtPoemdcfmABFKDmxtKKDmR5mKDmhXnFtm'
p14
aS'https://nsc.ijs.si:443/arex/2U5KDm59iuwnWiFSGmlJ8khoABFKDmABFKDmlAONDmT1IKDmXUExRo'
p15
asS'id'
p16
S'./movie/fold8/eksistencna_kriza0.05_1.0_1.0_0.4_8'
p17
sb.