ccopy_reg
_reconstructor
p0
(cjobmanager.common
Job
p1
c__builtin__
object
p2
Ntp3
Rp4
(dp5
S'lastStateChange'
p6
F1578349138.054343
sS'retries'
p7
I0
sS'errors'
p8
I0
sS'state'
p9
S'success'
p10
sS'needs_arcclean'
p11
I00
sS'gridJobIds'
p12
(lp13
S'https://trebuchet.ijs.si:443/arex/Y0FMDmIKp8vnOvrWonLn5monABFKDmABFKDmMfFKDm9yOKDmpzSnEm'
p14
asS'id'
p15
S'./fold0/tocka0.6_1.0_0.8_0.4_4'
p16
sb.