ccopy_reg
_reconstructor
p0
(cjobmanager.common
Job
p1
c__builtin__
object
p2
Ntp3
Rp4
(dp5
S'lastStateChange'
p6
F1575899267.087466
sS'retries'
p7
I1
sS'errors'
p8
I0
sS'state'
p9
S'success'
p10
sS'needs_arcclean'
p11
I00
sS'gridJobIds'
p12
(lp13
S'https://maister.hpc-rivr.um.si:443/arex/0vXMDmsSNwvnQ1W8MmmAVtPoemdcfmABFKDmMHLKDmxOFKDmOunefn'
p14
aS'https://maister.hpc-rivr.um.si:443/arex/7X2KDm9m7wvnQ1W8MmmAVtPoemdcfmABFKDmMHLKDmyCHKDm8vjbqm'
p15
asS'id'
p16
S'./imdb_big/fold8/tocka0.6_1.0_0.8_0.8_6'
p17
sb.