ccopy_reg
_reconstructor
p0
(cjobmanager.common
Job
p1
c__builtin__
object
p2
Ntp3
Rp4
(dp5
S'lastStateChange'
p6
F1590069944.03425
sS'retries'
p7
I2
sS'errors'
p8
I0
sS'state'
p9
S'success'
p10
sS'needs_arcclean'
p11
I00
sS'gridJobIds'
p12
(lp13
S'https://nsc.ijs.si:443/arex/71GODm2o0vwnWiFSGmlJ8khoABFKDmABFKDmZpuNDmwdFKDm3KSFAn'
p14
asS'id'
p15
S'./movie/fold3/eksistencna_kriza0.4_1.0_1.0_1.0_2'
p16
sb.