ccopy_reg
_reconstructor
p0
(cjobmanager.common
Job
p1
c__builtin__
object
p2
Ntp3
Rp4
(dp5
S'lastStateChange'
p6
F1575896698.173167
sS'retries'
p7
I1
sS'errors'
p8
I0
sS'state'
p9
S'success'
p10
sS'needs_arcclean'
p11
I00
sS'gridJobIds'
p12
(lp13
S'https://maister.hpc-rivr.um.si:443/arex/JbsLDmONkwvnQ1W8MmmAVtPoemdcfmABFKDmMHLKDmetGKDmiInS6m'
p14
aS'https://maister.hpc-rivr.um.si:443/arex/TMKLDmn1VxvnQ1W8MmmAVtPoemdcfmABFKDmMHLKDmBcHKDmX69usm'
p15
asS'id'
p16
S'./imdb_big/fold3/tocka0.05_1.0_0.8_0.4_6'
p17
sb.