ccopy_reg
_reconstructor
p0
(cjobmanager.common
Job
p1
c__builtin__
object
p2
Ntp3
Rp4
(dp5
S'lastStateChange'
p6
F1592651750.289188
sS'retries'
p7
I2
sS'errors'
p8
I0
sS'state'
p9
S'new'
p10
sS'needs_arcclean'
p11
I01
sS'gridJobIds'
p12
(lp13
S'https://maister.hpc-rivr.um.si:443/arex/bWDMDmXk94wnQ1W8MmmAVtPoemdcfmABFKDmDyHKDmYDFKDmmrOv3n'
p14
aS'https://maister.hpc-rivr.um.si:443/arex/1dPKDmpi65wnQ1W8MmmAVtPoemdcfmABFKDmoAMKDm5gFKDmYCq4dn'
p15
asS'id'
p16
S'./fold9/eksistencna_kriza0.2_1.0_0.6_1.0_4'
p17
sb.