ccopy_reg
_reconstructor
p0
(cjobmanager.common
Job
p1
c__builtin__
object
p2
Ntp3
Rp4
(dp5
S'lastStateChange'
p6
F1592596349.767178
sS'retries'
p7
I3
sS'errors'
p8
I0
sS'state'
p9
S'success'
p10
sS'needs_arcclean'
p11
I00
sS'gridJobIds'
p12
(lp13
S'https://trebuchet.ijs.si:443/arex/hvuNDmCNS6wnOvrWonLn5monABFKDmABFKDmzJKKDmynGKDmdtCbWo'
p14
aS'https://trebuchet.ijs.si:443/arex/041NDmMCT6wnOvrWonLn5monABFKDmABFKDmzJKKDmRyGKDmnrgkAn'
p15
aS'https://trebuchet.ijs.si:443/arex/eC0NDmhRT6wnOvrWonLn5monABFKDmABFKDmzJKKDmt2GKDm1iy6Uo'
p16
aS'https://trebuchet.ijs.si:443/arex/IIGLDmxgT6wnOvrWonLn5monABFKDmABFKDmzJKKDmk4GKDm6AukDo'
p17
asS'id'
p18
S'./mutagenesis/fold7'
p19
sb.