ccopy_reg
_reconstructor
p0
(cjobmanager.common
Job
p1
c__builtin__
object
p2
Ntp3
Rp4
(dp5
S'lastStateChange'
p6
F1590840125.770526
sS'retries'
p7
I3
sS'errors'
p8
I0
sS'state'
p9
S'success'
p10
sS'needs_arcclean'
p11
I00
sS'gridJobIds'
p12
(lp13
S'https://maister.hpc-rivr.um.si:443/arex/RYGMDm9WBzwnQ1W8MmmAVtPoemdcfmABFKDmO6HKDmcJIKDmjCONHn'
p14
aS'https://maister.hpc-rivr.um.si:443/arex/TBRNDmjkBzwnQ1W8MmmAVtPoemdcfmABFKDmO6HKDmQKIKDmWrz2Pm'
p15
aS'https://nsc.ijs.si:443/arex/7P8LDmL8BzwnWiFSGmlJ8khoABFKDmABFKDmYpJKDmXuGKDmRiCj5m'
p16
aS'https://nsc.ijs.si:443/arex/KpRLDmhHDzwnWiFSGmlJ8khoABFKDmABFKDmYpJKDmA0GKDmxZm8Eo'
p17
asS'id'
p18
S'./yelp_small/fold9/nec_rone_0.4_2'
p19
sb.