ccopy_reg
_reconstructor
p0
(cjobmanager.common
Job
p1
c__builtin__
object
p2
Ntp3
Rp4
(dp5
S'lastStateChange'
p6
F1574218428.101673
sS'retries'
p7
I1
sS'errors'
p8
I0
sS'state'
p9
S'success'
p10
sS'needs_arcclean'
p11
I00
sS'gridJobIds'
p12
(lp13
S'https://trebuchet.ijs.si:443/arex/gcgMDmSogqvnOvrWonLn5monABFKDmABFKDmMfFKDmEuFKDmkqemGm'
p14
aS'https://trebuchet.ijs.si:443/arex/1miKDmTmJrvnOvrWonLn5monABFKDmABFKDmMfFKDmmBGKDmR5fqnm'
p15
asS'id'
p16
S'./yelp_small/fold1/tocka0.6_1.0_0.8_0.8_8'
p17
sb.