ccopy_reg
_reconstructor
p0
(cjobmanager.common
Job
p1
c__builtin__
object
p2
Ntp3
Rp4
(dp5
S'lastStateChange'
p6
F1575814717.588936
sS'retries'
p7
I1
sS'errors'
p8
I0
sS'state'
p9
S'success'
p10
sS'needs_arcclean'
p11
I00
sS'gridJobIds'
p12
(lp13
S'https://maister.hpc-rivr.um.si:443/arex/ZbUNDmsEPwvnQ1W8MmmAVtPoemdcfmABFKDmMHLKDmDeFKDmX6iPrm'
p14
aS'https://maister.hpc-rivr.um.si:443/arex/nKFKDmRjNxvnQ1W8MmmAVtPoemdcfmABFKDmMHLKDmhPHKDmbokKGm'
p15
asS'id'
p16
S'./imdb_big/fold3/tocka0.6_1.0_0.8_0.4_8'
p17
sb.