ccopy_reg
_reconstructor
p0
(cjobmanager.common
Job
p1
c__builtin__
object
p2
Ntp3
Rp4
(dp5
S'lastStateChange'
p6
F1592557540.472886
sS'retries'
p7
I2
sS'errors'
p8
I0
sS'state'
p9
S'success'
p10
sS'needs_arcclean'
p11
I00
sS'gridJobIds'
p12
(lp13
S'https://trebuchet.ijs.si:443/arex/9YyMDmGVR6wnOvrWonLn5monABFKDmABFKDmzJKKDmfaGKDmtcXBFo'
p14
aS'https://trebuchet.ijs.si:443/arex/ryRNDmeYR6wnOvrWonLn5monABFKDmABFKDmzJKKDmLbGKDmDPAZUn'
p15
aS'https://trebuchet.ijs.si:443/arex/y3xMDmydR6wnOvrWonLn5monABFKDmABFKDmzJKKDmnbGKDm5bQRCo'
p16
asS'id'
p17
S'./carcinogenesis/fold5'
p18
sb.