ccopy_reg
_reconstructor
p0
(cjobmanager.common
Job
p1
c__builtin__
object
p2
Ntp3
Rp4
(dp5
S'lastStateChange'
p6
F1589767126.683969
sS'retries'
p7
I1
sS'errors'
p8
I0
sS'state'
p9
S'success'
p10
sS'needs_arcclean'
p11
I00
sS'gridJobIds'
p12
(lp13
S'https://maister.hpc-rivr.um.si:443/arex/ZIJKDm35qtwnQ1W8MmmAVtPoemdcfmABFKDmxtKKDmL8mKDm2ZXlpn'
p14
aS'https://nsc.ijs.si:443/arex/3LmMDmgHjuwnWiFSGmlJ8khoABFKDmABFKDmlAONDmG2IKDmeTPpum'
p15
asS'id'
p16
S'./imdb_big/fold9/eksistencna_kriza0.4_1.0_0.8_0.2_2'
p17
sb.