ccopy_reg
_reconstructor
p0
(cjobmanager.common
Job
p1
c__builtin__
object
p2
Ntp3
Rp4
(dp5
S'lastStateChange'
p6
F1592427235.274265
sS'retries'
p7
I2
sS'errors'
p8
I0
sS'state'
p9
S'new'
p10
sS'needs_arcclean'
p11
I01
sS'gridJobIds'
p12
(lp13
S'https://trebuchet.ijs.si:443/arex/19pMDmYW94wnOvrWonLn5monABFKDmABFKDmzJKKDmnBFKDmK7yUZn'
p14
aS'https://maister.hpc-rivr.um.si:443/arex/LP7NDm4GA5wnQ1W8MmmAVtPoemdcfmABFKDmDyHKDmHKFKDmMOjOhn'
p15
asS'id'
p16
S'./fold9/eksistencna_kriza0.6_1.0_0.8_0.6_2'
p17
sb.