ccopy_reg
_reconstructor
p0
(cjobmanager.common
Job
p1
c__builtin__
object
p2
Ntp3
Rp4
(dp5
S'lastStateChange'
p6
F1589654596.362945
sS'retries'
p7
I3
sS'errors'
p8
I0
sS'state'
p9
S'success'
p10
sS'needs_arcclean'
p11
I00
sS'gridJobIds'
p12
(lp13
S'https://nsc.ijs.si:443/arex/ji4KDm5q9twnWiFSGmlJ8khoABFKDmABFKDmlAONDmewHKDmVC9Wfm'
p14
asS'id'
p15
S'./imdb_big/fold4/eksistencna_kriza0.4_1.0_0.8_sqrt_6'
p16
sb.