ccopy_reg
_reconstructor
p0
(cjobmanager.common
Job
p1
c__builtin__
object
p2
Ntp3
Rp4
(dp5
S'lastStateChange'
p6
F1592372693.086736
sS'retries'
p7
I1
sS'errors'
p8
I0
sS'state'
p9
S'success'
p10
sS'needs_arcclean'
p11
I00
sS'gridJobIds'
p12
(lp13
S'https://nsc.ijs.si:443/arex/ej2NDmAHO5wnWiFSGmlJ8khoABFKDmABFKDm2m8WDmI9FKDmFYEGjm'
p14
aS'https://maister.hpc-rivr.um.si:443/arex/aiJODmTXR5wnQ1W8MmmAVtPoemdcfmABFKDmDyHKDmEXFKDmH3gcnn'
p15
asS'id'
p16
S'./fold3/eksistencna_kriza0.4_1.0_0.6_sqrt_4'
p17
sb.