ccopy_reg
_reconstructor
p0
(cjobmanager.common
Job
p1
c__builtin__
object
p2
Ntp3
Rp4
(dp5
S'lastStateChange'
p6
F1592427407.35413
sS'retries'
p7
I2
sS'errors'
p8
I0
sS'state'
p9
S'new'
p10
sS'needs_arcclean'
p11
I01
sS'gridJobIds'
p12
(lp13
S'https://trebuchet.ijs.si:443/arex/emUMDmdX94wnOvrWonLn5monABFKDmABFKDmzJKKDmTCFKDmEtTS9n'
p14
aS'https://maister.hpc-rivr.um.si:443/arex/zzEODmGJA5wnQ1W8MmmAVtPoemdcfmABFKDmDyHKDmyKFKDmPPSjVo'
p15
asS'id'
p16
S'./fold9/eksistencna_kriza0.4_1.0_1.0_0.8_6'
p17
sb.