ccopy_reg
_reconstructor
p0
(cjobmanager.common
Job
p1
c__builtin__
object
p2
Ntp3
Rp4
(dp5
S'lastStateChange'
p6
F1589764170.788316
sS'retries'
p7
I1
sS'errors'
p8
I0
sS'state'
p9
S'success'
p10
sS'needs_arcclean'
p11
I00
sS'gridJobIds'
p12
(lp13
S'https://maister.hpc-rivr.um.si:443/arex/dkkLDm10ltwnQ1W8MmmAVtPoemdcfmABFKDmxtKKDmI5mKDm4AqxOm'
p14
aS'https://nsc.ijs.si:443/arex/27RMDmX9iuwnWiFSGmlJ8khoABFKDmABFKDmlAONDmK1IKDmL4rbNm'
p15
asS'id'
p16
S'./movie/fold8/eksistencna_kriza0.2_1.0_0.6_0.2_4'
p17
sb.