ccopy_reg
_reconstructor
p0
(cjobmanager.common
Job
p1
c__builtin__
object
p2
Ntp3
Rp4
(dp5
S'lastStateChange'
p6
F1590148263.968927
sS'retries'
p7
I1
sS'errors'
p8
I0
sS'state'
p9
S'success'
p10
sS'needs_arcclean'
p11
I00
sS'gridJobIds'
p12
(lp13
S'https://nsc.ijs.si:443/arex/yspNDmmCLwwnWiFSGmlJ8khoABFKDmABFKDmZpuNDm6oGKDmQ2av5n'
p14
asS'id'
p15
S'./basket/fold5/eksistencna_kriza0.2_1.0_1.0_0.2_4'
p16
sb.