ccopy_reg
_reconstructor
p0
(cjobmanager.common
Job
p1
c__builtin__
object
p2
Ntp3
Rp4
(dp5
S'lastStateChange'
p6
F1589938354.550336
sS'retries'
p7
I0
sS'errors'
p8
I0
sS'state'
p9
S'success'
p10
sS'needs_arcclean'
p11
I00
sS'gridJobIds'
p12
(lp13
S'https://maister.hpc-rivr.um.si:443/arex/abPNDmAMRvwnQ1W8MmmAVtPoemdcfmABFKDmO6HKDmFKFKDmAAMfNm'
p14
aS'https://nsc.ijs.si:443/arex/CJbLDmvVRvwnWiFSGmlJ8khoABFKDmABFKDmlAONDmz3IKDm0BEkSm'
p15
asS'id'
p16
S'./stack_big/fold3'
p17
sb.