ccopy_reg
_reconstructor
p0
(cjobmanager.common
Job
p1
c__builtin__
object
p2
Ntp3
Rp4
(dp5
S'lastStateChange'
p6
F1575968568.862848
sS'retries'
p7
I1
sS'errors'
p8
I0
sS'state'
p9
S'success'
p10
sS'needs_arcclean'
p11
I00
sS'gridJobIds'
p12
(lp13
S'https://maister.hpc-rivr.um.si:443/arex/CRHKDmwpjwvnQ1W8MmmAVtPoemdcfmABFKDmMHLKDm3jGKDmvjiBMn'
p14
aS'https://maister.hpc-rivr.um.si:443/arex/x0vMDmRuVxvnQ1W8MmmAVtPoemdcfmABFKDmMHLKDmXaHKDmfbm2en'
p15
asS'id'
p16
S'./imdb_big/fold6/tocka0.4_1.0_0.8_sqrt_8'
p17
sb.