ccopy_reg
_reconstructor
p0
(cjobmanager.common
Job
p1
c__builtin__
object
p2
Ntp3
Rp4
(dp5
S'lastStateChange'
p6
F1591995588.777089
sS'retries'
p7
I1
sS'errors'
p8
I0
sS'state'
p9
S'success'
p10
sS'needs_arcclean'
p11
I00
sS'gridJobIds'
p12
(lp13
S'https://nsc.ijs.si:443/arex/JILNDm4J43wnWiFSGmlJ8khoABFKDmABFKDm2m8WDmtpFKDmr8wtLo'
p14
aS'https://nsc.ijs.si:443/arex/y9vMDmpR53wnWiFSGmlJ8khoABFKDmABFKDm2m8WDmrsFKDm3v2H2m'
p15
asS'id'
p16
S'./carcinogenesis/fold5/eksistencna_kriza0.4_1.0_0.8_sqrt_2'
p17
sb.