ccopy_reg
_reconstructor
p0
(cjobmanager.common
Job
p1
c__builtin__
object
p2
Ntp3
Rp4
(dp5
S'lastStateChange'
p6
F1592611132.906546
sS'retries'
p7
I3
sS'errors'
p8
I0
sS'state'
p9
S'success'
p10
sS'needs_arcclean'
p11
I00
sS'gridJobIds'
p12
(lp13
S'https://trebuchet.ijs.si:443/arex/sIjKDmVNS6wnOvrWonLn5monABFKDmABFKDmzJKKDmAoGKDmh1O2Hn'
p14
aS'https://trebuchet.ijs.si:443/arex/KohLDmeCT6wnOvrWonLn5monABFKDmABFKDmzJKKDmdyGKDmceX4Bn'
p15
aS'https://trebuchet.ijs.si:443/arex/8ddMDm1RT6wnOvrWonLn5monABFKDmABFKDmzJKKDmz2GKDmVUoiLm'
p16
aS'https://trebuchet.ijs.si:443/arex/E3DMDmGhT6wnOvrWonLn5monABFKDmABFKDmzJKKDmw4GKDmc1Eemn'
p17
asS'id'
p18
S'./mutagenesis/fold1'
p19
sb.