ccopy_reg
_reconstructor
p0
(cjobmanager.common
Job
p1
c__builtin__
object
p2
Ntp3
Rp4
(dp5
S'lastStateChange'
p6
F1590843147.570486
sS'retries'
p7
I0
sS'errors'
p8
I0
sS'state'
p9
S'success'
p10
sS'needs_arcclean'
p11
I00
sS'gridJobIds'
p12
(lp13
S'https://nsc.ijs.si:443/arex/1LiKDm7huywnWiFSGmlJ8khoABFKDmABFKDmYpJKDm6IGKDmE2tsVm'
p14
asS'id'
p15
S'./webkb1/fold1/tree43'
p16
sb.