ccopy_reg
_reconstructor
p0
(cjobmanager.common
Job
p1
c__builtin__
object
p2
Ntp3
Rp4
(dp5
S'lastStateChange'
p6
F1575890479.169342
sS'retries'
p7
I1
sS'errors'
p8
I0
sS'state'
p9
S'success'
p10
sS'needs_arcclean'
p11
I00
sS'gridJobIds'
p12
(lp13
S'https://maister.hpc-rivr.um.si:443/arex/St3NDmhrjwvnQ1W8MmmAVtPoemdcfmABFKDmMHLKDm0kGKDmVEa7To'
p14
aS'https://maister.hpc-rivr.um.si:443/arex/5RLMDmmDOxvnQ1W8MmmAVtPoemdcfmABFKDmMHLKDmjWHKDmbiU0mm'
p15
asS'id'
p16
S'./imdb_big/fold6/tocka0.2_1.0_1.0_1.0_4'
p17
sb.