ccopy_reg
_reconstructor
p0
(cjobmanager.common
Job
p1
c__builtin__
object
p2
Ntp3
Rp4
(dp5
S'lastStateChange'
p6
F1592023511.662296
sS'retries'
p7
I0
sS'errors'
p8
I0
sS'state'
p9
S'success'
p10
sS'needs_arcclean'
p11
I00
sS'gridJobIds'
p12
(lp13
S'https://nsc.ijs.si:443/arex/ZufLDmnk53wnWiFSGmlJ8khoABFKDmABFKDm2m8WDmLuFKDm5YBbSm'
p14
asS'id'
p15
S'./carcinogenesis/fold3/eksistencna_kriza0.6_1.0_1.0_0.6_6'
p16
sb.