ccopy_reg
_reconstructor
p0
(cjobmanager.common
Job
p1
c__builtin__
object
p2
Ntp3
Rp4
(dp5
S'lastStateChange'
p6
F1592034303.436213
sS'retries'
p7
I0
sS'errors'
p8
I0
sS'state'
p9
S'success'
p10
sS'needs_arcclean'
p11
I00
sS'gridJobIds'
p12
(lp13
S'https://nsc.ijs.si:443/arex/c7mNDmxm83wnWiFSGmlJ8khoABFKDmABFKDm2m8WDmf1FKDmB9143m'
p14
asS'id'
p15
S'./carcinogenesis/fold0/eksistencna_kriza0.6_1.0_0.8_1.0_6'
p16
sb.