ccopy_reg
_reconstructor
p0
(cjobmanager.common
Job
p1
c__builtin__
object
p2
Ntp3
Rp4
(dp5
S'lastStateChange'
p6
F1592345101.334477
sS'retries'
p7
I1
sS'errors'
p8
I0
sS'state'
p9
S'success'
p10
sS'needs_arcclean'
p11
I00
sS'gridJobIds'
p12
(lp13
S'https://nsc.ijs.si:443/arex/0MHKDmE3N5wnWiFSGmlJ8khoABFKDmABFKDm2m8WDma8FKDmgASJSn'
p14
aS'https://maister.hpc-rivr.um.si:443/arex/W1QLDmUnQ5wnQ1W8MmmAVtPoemdcfmABFKDmDyHKDmLWFKDm8KZC6m'
p15
asS'id'
p16
S'./fold3/eksistencna_kriza0.4_1.0_1.0_sqrt_2'
p17
sb.