ccopy_reg
_reconstructor
p0
(cjobmanager.common
Job
p1
c__builtin__
object
p2
Ntp3
Rp4
(dp5
S'lastStateChange'
p6
F1590844966.494721
sS'retries'
p7
I3
sS'errors'
p8
I0
sS'state'
p9
S'success'
p10
sS'needs_arcclean'
p11
I00
sS'gridJobIds'
p12
(lp13
S'https://maister.hpc-rivr.um.si:443/arex/h7mNDmlXBzwnQ1W8MmmAVtPoemdcfmABFKDmO6HKDmoJIKDmxcFqWm'
p14
aS'https://nsc.ijs.si:443/arex/hU1MDmPnBzwnWiFSGmlJ8khoABFKDmABFKDmYpJKDmSuGKDmLilKnm'
p15
aS'https://nsc.ijs.si:443/arex/NuMLDmCACzwnWiFSGmlJ8khoABFKDmABFKDmYpJKDmluGKDmPy47lm'
p16
aS'https://nsc.ijs.si:443/arex/FxzKDmPIDzwnWiFSGmlJ8khoABFKDmABFKDmYpJKDmY0GKDm0bl1gn'
p17
asS'id'
p18
S'./yelp_small/fold8/nec_rone_0.05_2'
p19
sb.