ccopy_reg
_reconstructor
p0
(cjobmanager.common
Job
p1
c__builtin__
object
p2
Ntp3
Rp4
(dp5
S'lastStateChange'
p6
F1575823208.404736
sS'retries'
p7
I1
sS'errors'
p8
I0
sS'state'
p9
S'success'
p10
sS'needs_arcclean'
p11
I00
sS'gridJobIds'
p12
(lp13
S'https://maister.hpc-rivr.um.si:443/arex/vAmNDm5uOwvnQ1W8MmmAVtPoemdcfmABFKDmMHLKDmYZFKDmsZ6MHn'
p14
aS'https://maister.hpc-rivr.um.si:443/arex/SEdKDmNaNxvnQ1W8MmmAVtPoemdcfmABFKDmMHLKDmlNHKDmkAYyWn'
p15
asS'id'
p16
S'./imdb_big/fold4/tocka0.6_1.0_0.8_0.2_8'
p17
sb.