ccopy_reg
_reconstructor
p0
(cjobmanager.common
Job
p1
c__builtin__
object
p2
Ntp3
Rp4
(dp5
S'lastStateChange'
p6
F1575932626.517899
sS'retries'
p7
I1
sS'errors'
p8
I0
sS'state'
p9
S'success'
p10
sS'needs_arcclean'
p11
I00
sS'gridJobIds'
p12
(lp13
S'https://maister.hpc-rivr.um.si:443/arex/wZeNDm8wQwvnQ1W8MmmAVtPoemdcfmABFKDmMHLKDmJrFKDmH3IIsn'
p14
aS'https://maister.hpc-rivr.um.si:443/arex/V4xNDmu7NxvnQ1W8MmmAVtPoemdcfmABFKDmMHLKDmiVHKDmoeQASo'
p15
asS'id'
p16
S'./imdb_big/fold0/tocka0.6_1.0_1.0_sqrt_6'
p17
sb.