ccopy_reg
_reconstructor
p0
(cjobmanager.common
Job
p1
c__builtin__
object
p2
Ntp3
Rp4
(dp5
S'lastStateChange'
p6
F1575182415.963234
sS'retries'
p7
I0
sS'errors'
p8
I0
sS'state'
p9
S'success'
p10
sS'needs_arcclean'
p11
I00
sS'gridJobIds'
p12
(lp13
S'https://maister.hpc-rivr.um.si:443/arex/7WnNDmT8MvvnQ1W8MmmAVtPoemdcfmABFKDm5fVKDmjTFKDm0XoJOn'
p14
asS'id'
p15
S'./stack_big/fold0/tocka0.4_1.0_1.0_0.4_2'
p16
sb.