ccopy_reg
_reconstructor
p0
(cjobmanager.common
Job
p1
c__builtin__
object
p2
Ntp3
Rp4
(dp5
S'lastStateChange'
p6
F1576010999.116455
sS'retries'
p7
I1
sS'errors'
p8
I0
sS'state'
p9
S'success'
p10
sS'needs_arcclean'
p11
I00
sS'gridJobIds'
p12
(lp13
S'https://maister.hpc-rivr.um.si:443/arex/B6vLDmnpjwvnQ1W8MmmAVtPoemdcfmABFKDmMHLKDmzjGKDm0wb0jn'
p14
aS'https://maister.hpc-rivr.um.si:443/arex/cN7KDmNuVxvnQ1W8MmmAVtPoemdcfmABFKDmMHLKDmWaHKDm5p4Ksm'
p15
asS'id'
p16
S'./imdb_big/fold6/tocka0.4_1.0_1.0_0.2_8'
p17
sb.