ccopy_reg
_reconstructor
p0
(cjobmanager.common
Job
p1
c__builtin__
object
p2
Ntp3
Rp4
(dp5
S'lastStateChange'
p6
F1592556856.453913
sS'retries'
p7
I2
sS'errors'
p8
I0
sS'state'
p9
S'success'
p10
sS'needs_arcclean'
p11
I00
sS'gridJobIds'
p12
(lp13
S'https://trebuchet.ijs.si:443/arex/AtgNDmkUR6wnOvrWonLn5monABFKDmABFKDmzJKKDmPaGKDmZ1mI5n'
p14
aS'https://trebuchet.ijs.si:443/arex/9OfKDm8XR6wnOvrWonLn5monABFKDmABFKDmzJKKDmBbGKDmmtqJwn'
p15
aS'https://trebuchet.ijs.si:443/arex/tzKLDmPdR6wnOvrWonLn5monABFKDmABFKDmzJKKDmVbGKDmrpIT3n'
p16
asS'id'
p17
S'./mutagenesis/fold5'
p18
sb.