ccopy_reg
_reconstructor
p0
(cjobmanager.common
Job
p1
c__builtin__
object
p2
Ntp3
Rp4
(dp5
S'lastStateChange'
p6
F1592268367.949284
sS'retries'
p7
I1
sS'errors'
p8
I0
sS'state'
p9
S'success'
p10
sS'needs_arcclean'
p11
I00
sS'gridJobIds'
p12
(lp13
S'https://trebuchet.ijs.si:443/arex/n2oLDmgY94wnOvrWonLn5monABFKDmABFKDmzJKKDm9CFKDmEx4zZm'
p14
aS'https://maister.hpc-rivr.um.si:443/arex/8YOMDmCMA5wnQ1W8MmmAVtPoemdcfmABFKDmDyHKDmfLFKDmuJobPn'
p15
asS'id'
p16
S'./fold9/eksistencna_kriza0.4_1.0_0.6_sqrt_2'
p17
sb.