ccopy_reg
_reconstructor
p0
(cjobmanager.common
Job
p1
c__builtin__
object
p2
Ntp3
Rp4
(dp5
S'lastStateChange'
p6
F1592476297.953326
sS'retries'
p7
I2
sS'errors'
p8
I0
sS'state'
p9
S'new'
p10
sS'needs_arcclean'
p11
I01
sS'gridJobIds'
p12
(lp13
S'https://nsc.ijs.si:443/arex/182NDmKMN5wnWiFSGmlJ8khoABFKDmABFKDm2m8WDm27FKDmqHG5gm'
p14
aS'https://nsc.ijs.si:443/arex/PJXNDmz0N5wnWiFSGmlJ8khoABFKDmABFKDm2m8WDmN8FKDmZYe4Yn'
p15
asS'id'
p16
S'./fold3/eksistencna_kriza0.6_1.0_1.0_0.2_8'
p17
sb.