ccopy_reg
_reconstructor
p0
(cjobmanager.common
Job
p1
c__builtin__
object
p2
Ntp3
Rp4
(dp5
S'lastStateChange'
p6
F1589945049.650114
sS'retries'
p7
I0
sS'errors'
p8
I0
sS'state'
p9
S'success'
p10
sS'needs_arcclean'
p11
I00
sS'gridJobIds'
p12
(lp13
S'https://maister.hpc-rivr.um.si:443/arex/A1GMDmNNRvwnQ1W8MmmAVtPoemdcfmABFKDmO6HKDmdKFKDmdGnj7m'
p14
aS'https://nsc.ijs.si:443/arex/tg8NDmEXRvwnWiFSGmlJ8khoABFKDmABFKDmlAONDmZ4IKDmge3Bxn'
p15
asS'id'
p16
S'./imdb_big/fold1'
p17
sb.