ccopy_reg
_reconstructor
p0
(cjobmanager.common
Job
p1
c__builtin__
object
p2
Ntp3
Rp4
(dp5
S'lastStateChange'
p6
F1575960261.312119
sS'retries'
p7
I1
sS'errors'
p8
I0
sS'state'
p9
S'success'
p10
sS'needs_arcclean'
p11
I00
sS'gridJobIds'
p12
(lp13
S'https://trebuchet.ijs.si:443/arex/8kKLDm3bNwvnOvrWonLn5monABFKDmABFKDmMfFKDmmyHKDmT1Mbbn'
p14
aS'https://maister.hpc-rivr.um.si:443/arex/IPdLDmEBOxvnQ1W8MmmAVtPoemdcfmABFKDmMHLKDm6VHKDmqAnj6n'
p15
asS'id'
p16
S'./imdb_big/fold8/tocka0.2_1.0_0.8_1.0_6'
p17
sb.