ccopy_reg
_reconstructor
p0
(cjobmanager.common
Job
p1
c__builtin__
object
p2
Ntp3
Rp4
(dp5
S'lastStateChange'
p6
F1578347874.963372
sS'retries'
p7
I0
sS'errors'
p8
I0
sS'state'
p9
S'success'
p10
sS'needs_arcclean'
p11
I00
sS'gridJobIds'
p12
(lp13
S'https://trebuchet.ijs.si:443/arex/G49MDmIlo8vnOvrWonLn5monABFKDmABFKDmMfFKDm2tOKDmUc3kJn'
p14
asS'id'
p15
S'./fold1/tocka0.6_1.0_1.0_0.6_6'
p16
sb.