ccopy_reg
_reconstructor
p0
(cjobmanager.common
Job
p1
c__builtin__
object
p2
Ntp3
Rp4
(dp5
S'lastStateChange'
p6
F1592599066.725623
sS'retries'
p7
I3
sS'errors'
p8
I0
sS'state'
p9
S'success'
p10
sS'needs_arcclean'
p11
I00
sS'gridJobIds'
p12
(lp13
S'https://trebuchet.ijs.si:443/arex/DWJKDmANS6wnOvrWonLn5monABFKDmABFKDmzJKKDmwnGKDm648RIm'
p14
aS'https://trebuchet.ijs.si:443/arex/XTFMDmJCT6wnOvrWonLn5monABFKDmABFKDmzJKKDmPyGKDmIEquxn'
p15
aS'https://trebuchet.ijs.si:443/arex/ORGKDmeRT6wnOvrWonLn5monABFKDmABFKDmzJKKDms2GKDmB6iBIo'
p16
aS'https://trebuchet.ijs.si:443/arex/4AMODmtgT6wnOvrWonLn5monABFKDmABFKDmzJKKDmi4GKDmoa8gTn'
p17
asS'id'
p18
S'./mutagenesis/fold8'
p19
sb.