ccopy_reg
_reconstructor
p0
(cjobmanager.common
Job
p1
c__builtin__
object
p2
Ntp3
Rp4
(dp5
S'lastStateChange'
p6
F1589941041.152373
sS'retries'
p7
I0
sS'errors'
p8
I0
sS'state'
p9
S'success'
p10
sS'needs_arcclean'
p11
I00
sS'gridJobIds'
p12
(lp13
S'https://nsc.ijs.si:443/arex/bHBMDmxZRvwnWiFSGmlJ8khoABFKDmABFKDmlAONDmn5IKDmp44aDm'
p14
aS'https://nsc.ijs.si:443/arex/eW7KDmBmRvwnWiFSGmlJ8khoABFKDmABFKDmlAONDmd7IKDmqfn1Po'
p15
asS'id'
p16
S'./imdb_big/fold4'
p17
sb.