ccopy_reg
_reconstructor
p0
(cjobmanager.common
Job
p1
c__builtin__
object
p2
Ntp3
Rp4
(dp5
S'lastStateChange'
p6
F1592023508.941338
sS'retries'
p7
I1
sS'errors'
p8
I0
sS'state'
p9
S'success'
p10
sS'needs_arcclean'
p11
I00
sS'gridJobIds'
p12
(lp13
S'https://nsc.ijs.si:443/arex/VW6MDmkm43wnWiFSGmlJ8khoABFKDmABFKDm2m8WDm3rFKDm16hvIn'
p14
aS'https://maister.hpc-rivr.um.si:443/arex/0DzMDmYT53wnQ1W8MmmAVtPoemdcfmABFKDmgyHKDm6fGKDm1uqEbm'
p15
asS'id'
p16
S'./carcinogenesis/fold4/eksistencna_kriza0.4_1.0_1.0_1.0_8'
p17
sb.