ccopy_reg
_reconstructor
p0
(cjobmanager.common
Job
p1
c__builtin__
object
p2
Ntp3
Rp4
(dp5
S'lastStateChange'
p6
F1590573865.002527
sS'retries'
p7
I1
sS'errors'
p8
I0
sS'state'
p9
S'success'
p10
sS'needs_arcclean'
p11
I00
sS'gridJobIds'
p12
(lp13
S'https://nsc.ijs.si:443/arex/2jNMDmlO3xwnWiFSGmlJ8khoABFKDmABFKDmYpJKDm8jFKDm80zTxm'
p14
aS'https://maister.hpc-rivr.um.si:443/arex/kngLDmiz7xwnQ1W8MmmAVtPoemdcfmABFKDmO6HKDmTIHKDm7tFYnn'
p15
asS'id'
p16
S'./fold5/eksistencna_kriza0.05_1.0_1.0_0.4_8'
p17
sb.