ccopy_reg
_reconstructor
p0
(cjobmanager.common
Job
p1
c__builtin__
object
p2
Ntp3
Rp4
(dp5
S'lastStateChange'
p6
F1589939936.617981
sS'retries'
p7
I0
sS'errors'
p8
I0
sS'state'
p9
S'success'
p10
sS'needs_arcclean'
p11
I00
sS'gridJobIds'
p12
(lp13
S'https://maister.hpc-rivr.um.si:443/arex/CrOKDmuNRvwnQ1W8MmmAVtPoemdcfmABFKDmO6HKDmjKFKDmZ2PeSn'
p14
aS'https://nsc.ijs.si:443/arex/q4oLDmdXRvwnWiFSGmlJ8khoABFKDmABFKDmlAONDmj4IKDmjmllGo'
p15
asS'id'
p16
S'./basket/fold5'
p17
sb.