ccopy_reg
_reconstructor
p0
(cjobmanager.common
Job
p1
c__builtin__
object
p2
Ntp3
Rp4
(dp5
S'lastStateChange'
p6
F1589939805.103333
sS'retries'
p7
I0
sS'errors'
p8
I0
sS'state'
p9
S'success'
p10
sS'needs_arcclean'
p11
I00
sS'gridJobIds'
p12
(lp13
S'https://maister.hpc-rivr.um.si:443/arex/WYoNDmoNRvwnQ1W8MmmAVtPoemdcfmABFKDmO6HKDmiKFKDmQLv9sn'
p14
aS'https://nsc.ijs.si:443/arex/65kNDmYXRvwnWiFSGmlJ8khoABFKDmABFKDmlAONDmh4IKDmQHU9Lo'
p15
asS'id'
p16
S'./basket/fold6'
p17
sb.