ccopy_reg
_reconstructor
p0
(cjobmanager.common
Job
p1
c__builtin__
object
p2
Ntp3
Rp4
(dp5
S'lastStateChange'
p6
F1589764185.056752
sS'retries'
p7
I1
sS'errors'
p8
I0
sS'state'
p9
S'success'
p10
sS'needs_arcclean'
p11
I00
sS'gridJobIds'
p12
(lp13
S'https://maister.hpc-rivr.um.si:443/arex/I5bLDmf1ltwnQ1W8MmmAVtPoemdcfmABFKDmxtKKDmN5mKDm9uzlLn'
p14
aS'https://nsc.ijs.si:443/arex/KYoKDmq9iuwnWiFSGmlJ8khoABFKDmABFKDmlAONDmP1IKDmTvsvEm'
p15
asS'id'
p16
S'./movie/fold8/eksistencna_kriza0.05_1.0_1.0_0.8_8'
p17
sb.