ccopy_reg
_reconstructor
p0
(cjobmanager.common
Job
p1
c__builtin__
object
p2
Ntp3
Rp4
(dp5
S'lastStateChange'
p6
F1574205700.024188
sS'retries'
p7
I1
sS'errors'
p8
I0
sS'state'
p9
S'success'
p10
sS'needs_arcclean'
p11
I00
sS'gridJobIds'
p12
(lp13
S'https://trebuchet.ijs.si:443/arex/e0pKDmVHbqvnOvrWonLn5monABFKDmABFKDmMfFKDmBnFKDmJ341Em'
p14
aS'https://trebuchet.ijs.si:443/arex/dmWKDmQmJrvnOvrWonLn5monABFKDmABFKDmMfFKDmkBGKDm4ownbm'
p15
asS'id'
p16
S'./yelp_small/fold3/tocka0.2_1.0_0.8_sqrt_2'
p17
sb.