ccopy_reg
_reconstructor
p0
(cjobmanager.common
Job
p1
c__builtin__
object
p2
Ntp3
Rp4
(dp5
S'lastStateChange'
p6
F1591063051.084333
sS'retries'
p7
I2
sS'errors'
p8
I0
sS'state'
p9
S'new'
p10
sS'needs_arcclean'
p11
I01
sS'gridJobIds'
p12
(lp13
S'https://nsc.ijs.si:443/arex/vGIKDmjWVywnWiFSGmlJ8khoABFKDmABFKDmYpJKDmlxFKDm7IaJym'
p14
aS'https://nsc.ijs.si:443/arex/vm7NDmVNSzwnWiFSGmlJ8khoABFKDmABFKDmYpJKDme4GKDmtQBLcm'
p15
asS'id'
p16
S'./fold3/tocka0.0_1'
p17
sb.