ccopy_reg
_reconstructor
p0
(cjobmanager.common
Job
p1
c__builtin__
object
p2
Ntp3
Rp4
(dp5
S'lastStateChange'
p6
F1592001037.537753
sS'retries'
p7
I1
sS'errors'
p8
I0
sS'state'
p9
S'success'
p10
sS'needs_arcclean'
p11
I00
sS'gridJobIds'
p12
(lp13
S'https://nsc.ijs.si:443/arex/tpJLDmCZ43wnWiFSGmlJ8khoABFKDmABFKDm2m8WDmvqFKDmtLPyDm'
p14
aS'https://maister.hpc-rivr.um.si:443/arex/ubzLDmfS53wnQ1W8MmmAVtPoemdcfmABFKDmgyHKDmtfGKDm2RNZNo'
p15
asS'id'
p16
S'./carcinogenesis/fold5/eksistencna_kriza0.05_1.0_1.0_0.8_2'
p17
sb.