ccopy_reg
_reconstructor
p0
(cjobmanager.common
Job
p1
c__builtin__
object
p2
Ntp3
Rp4
(dp5
S'lastStateChange'
p6
F1576010995.856336
sS'retries'
p7
I1
sS'errors'
p8
I0
sS'state'
p9
S'success'
p10
sS'needs_arcclean'
p11
I00
sS'gridJobIds'
p12
(lp13
S'https://maister.hpc-rivr.um.si:443/arex/kkgMDmrLjwvnQ1W8MmmAVtPoemdcfmABFKDmMHLKDmKhGKDmdjtR2n'
p14
aS'https://maister.hpc-rivr.um.si:443/arex/g90NDmSpVxvnQ1W8MmmAVtPoemdcfmABFKDmMHLKDmQZHKDmjlpm8n'
p15
asS'id'
p16
S'./imdb_big/fold7/tocka0.4_1.0_1.0_0.4_8'
p17
sb.