ccopy_reg
_reconstructor
p0
(cjobmanager.common
Job
p1
c__builtin__
object
p2
Ntp3
Rp4
(dp5
S'lastStateChange'
p6
F1575877990.188318
sS'retries'
p7
I1
sS'errors'
p8
I0
sS'state'
p9
S'success'
p10
sS'needs_arcclean'
p11
I00
sS'gridJobIds'
p12
(lp13
S'https://maister.hpc-rivr.um.si:443/arex/UKoLDmfCQwvnQ1W8MmmAVtPoemdcfmABFKDmMHLKDmepFKDmXABucn'
p14
aS'https://maister.hpc-rivr.um.si:443/arex/e46LDmE4NxvnQ1W8MmmAVtPoemdcfmABFKDmMHLKDmhUHKDmQkku3n'
p15
asS'id'
p16
S'./imdb_big/fold1/tocka0.2_1.0_0.6_1.0_8'
p17
sb.