ccopy_reg
_reconstructor
p0
(cjobmanager.common
Job
p1
c__builtin__
object
p2
Ntp3
Rp4
(dp5
S'lastStateChange'
p6
F1575994437.416363
sS'retries'
p7
I1
sS'errors'
p8
I0
sS'state'
p9
S'success'
p10
sS'needs_arcclean'
p11
I00
sS'gridJobIds'
p12
(lp13
S'https://maister.hpc-rivr.um.si:443/arex/JOBODmVfPwvnQ1W8MmmAVtPoemdcfmABFKDmMHLKDmHiFKDmtI5djn'
p14
aS'https://maister.hpc-rivr.um.si:443/arex/zfZLDmDqNxvnQ1W8MmmAVtPoemdcfmABFKDmMHLKDmSRHKDmDbTt4m'
p15
asS'id'
p16
S'./imdb_big/fold2/tocka0.6_1.0_0.8_1.0_8'
p17
sb.