ccopy_reg
_reconstructor
p0
(cjobmanager.common
Job
p1
c__builtin__
object
p2
Ntp3
Rp4
(dp5
S'lastStateChange'
p6
F1592595593.442998
sS'retries'
p7
I1
sS'errors'
p8
I0
sS'state'
p9
S'success'
p10
sS'needs_arcclean'
p11
I00
sS'gridJobIds'
p12
(lp13
S'https://trebuchet.ijs.si:443/arex/S9SMDmi7S6wnOvrWonLn5monABFKDmABFKDmzJKKDm0wGKDm2XtONn'
p14
aS'https://trebuchet.ijs.si:443/arex/gSbKDmFPX6wnOvrWonLn5monABFKDmABFKDmzJKKDmoWHKDmrnIZrm'
p15
asS'id'
p16
S'./mutagenesis/fold0/tree2'
p17
sb.