ccopy_reg
_reconstructor
p0
(cjobmanager.common
Job
p1
c__builtin__
object
p2
Ntp3
Rp4
(dp5
S'lastStateChange'
p6
F1589940637.522066
sS'retries'
p7
I0
sS'errors'
p8
I0
sS'state'
p9
S'success'
p10
sS'needs_arcclean'
p11
I00
sS'gridJobIds'
p12
(lp13
S'https://nsc.ijs.si:443/arex/wxBMDm7XRvwnWiFSGmlJ8khoABFKDmABFKDmlAONDmw4IKDmEPGLOo'
p14
aS'https://nsc.ijs.si:443/arex/a8fMDmRkRvwnWiFSGmlJ8khoABFKDmABFKDmlAONDm96IKDm3MG1Mm'
p15
asS'id'
p16
S'./uwcse/fold5'
p17
sb.