ccopy_reg
_reconstructor
p0
(cjobmanager.common
Job
p1
c__builtin__
object
p2
Ntp3
Rp4
(dp5
S'lastStateChange'
p6
F1589941382.986221
sS'retries'
p7
I0
sS'errors'
p8
I0
sS'state'
p9
S'success'
p10
sS'needs_arcclean'
p11
I00
sS'gridJobIds'
p12
(lp13
S'https://nsc.ijs.si:443/arex/my6LDmaaRvwnWiFSGmlJ8khoABFKDmABFKDmlAONDm65IKDmPuZeDm'
p14
aS'https://nsc.ijs.si:443/arex/ADQNDmimRvwnWiFSGmlJ8khoABFKDmABFKDmlAONDmm7IKDmCsn9Im'
p15
asS'id'
p16
S'./basket/fold5'
p17
sb.