ccopy_reg
_reconstructor
p0
(cjobmanager.common
Job
p1
c__builtin__
object
p2
Ntp3
Rp4
(dp5
S'lastStateChange'
p6
F1590840819.541315
sS'retries'
p7
I3
sS'errors'
p8
I0
sS'state'
p9
S'success'
p10
sS'needs_arcclean'
p11
I00
sS'gridJobIds'
p12
(lp13
S'https://maister.hpc-rivr.um.si:443/arex/JOMLDmGXBzwnQ1W8MmmAVtPoemdcfmABFKDmO6HKDmeJIKDmyVDUOn'
p14
aS'https://nsc.ijs.si:443/arex/fHmNDmnkBzwnWiFSGmlJ8khoABFKDmABFKDmYpJKDmEuGKDmskTdXn'
p15
aS'https://nsc.ijs.si:443/arex/bXwNDmh9BzwnWiFSGmlJ8khoABFKDmABFKDmYpJKDmbuGKDmMPX5qn'
p16
aS'https://nsc.ijs.si:443/arex/A79NDmnHDzwnWiFSGmlJ8khoABFKDmABFKDmYpJKDmE0GKDmVSlxUo'
p17
asS'id'
p18
S'./yelp_small/fold9/nec_rone_0.2_2'
p19
sb.