ccopy_reg
_reconstructor
p0
(cjobmanager.common
Job
p1
c__builtin__
object
p2
Ntp3
Rp4
(dp5
S'lastStateChange'
p6
F1592396815.861093
sS'retries'
p7
I1
sS'errors'
p8
I0
sS'state'
p9
S'success'
p10
sS'needs_arcclean'
p11
I00
sS'gridJobIds'
p12
(lp13
S'https://trebuchet.ijs.si:443/arex/K8jLDmdV94wnOvrWonLn5monABFKDmABFKDmzJKKDmBBFKDm9uBHbm'
p14
aS'https://maister.hpc-rivr.um.si:443/arex/wV4KDm6EA5wnQ1W8MmmAVtPoemdcfmABFKDmDyHKDmeJFKDmgDJ3rn'
p15
asS'id'
p16
S'./fold9/eksistencna_kriza0.6_1.0_1.0_sqrt_6'
p17
sb.