ccopy_reg
_reconstructor
p0
(cjobmanager.common
Job
p1
c__builtin__
object
p2
Ntp3
Rp4
(dp5
S'lastStateChange'
p6
F1592652080.46266
sS'retries'
p7
I2
sS'errors'
p8
I0
sS'state'
p9
S'new'
p10
sS'needs_arcclean'
p11
I01
sS'gridJobIds'
p12
(lp13
S'https://maister.hpc-rivr.um.si:443/arex/tJILDmWn94wnQ1W8MmmAVtPoemdcfmABFKDmDyHKDmTEFKDmHp0xam'
p14
aS'https://maister.hpc-rivr.um.si:443/arex/oT1NDmso65wnQ1W8MmmAVtPoemdcfmABFKDmoAMKDm0hFKDmXFM2Kn'
p15
asS'id'
p16
S'./fold9/eksistencna_kriza0.05_1.0_0.8_0.6_4'
p17
sb.