ccopy_reg
_reconstructor
p0
(cjobmanager.common
Job
p1
c__builtin__
object
p2
Ntp3
Rp4
(dp5
S'lastStateChange'
p6
F1592650074.062244
sS'retries'
p7
I1
sS'errors'
p8
I0
sS'state'
p9
S'new'
p10
sS'needs_arcclean'
p11
I01
sS'gridJobIds'
p12
(lp13
S'https://maister.hpc-rivr.um.si:443/arex/o35NDmqG65wnQ1W8MmmAVtPoemdcfmABFKDmoAMKDmldFKDmV7RDOm'
p14
asS'id'
p15
S'./fold0/eksistencna_kriza0.2_1.0_0.8_0.4_2'
p16
sb.