ccopy_reg
_reconstructor
p0
(cjobmanager.common
Job
p1
c__builtin__
object
p2
Ntp3
Rp4
(dp5
S'lastStateChange'
p6
F1590821556.138165
sS'retries'
p7
I0
sS'errors'
p8
I0
sS'state'
p9
S'success'
p10
sS'needs_arcclean'
p11
I00
sS'gridJobIds'
p12
(lp13
S'https://nsc.ijs.si:443/arex/0PZKDmBSsywnWiFSGmlJ8khoABFKDmABFKDmYpJKDmnBGKDm3g2vPm'
p14
asS'id'
p15
S'./webkb1/fold7/tree35'
p16
sb.