ccopy_reg
_reconstructor
p0
(cjobmanager.common
Job
p1
c__builtin__
object
p2
Ntp3
Rp4
(dp5
S'lastStateChange'
p6
F1591078710.630811
sS'retries'
p7
I2
sS'errors'
p8
I0
sS'state'
p9
S'new'
p10
sS'needs_arcclean'
p11
I01
sS'gridJobIds'
p12
(lp13
S'https://nsc.ijs.si:443/arex/t4iNDmwgjywnWiFSGmlJ8khoABFKDmABFKDmYpJKDmv2FKDmdIuwXo'
p14
aS'https://nsc.ijs.si:443/arex/HmTKDmpRWzwnWiFSGmlJ8khoABFKDmABFKDmYpJKDmh4GKDmitd3in'
p15
asS'id'
p16
S'./fold0/tocka0.0_1'
p17
sb.