ccopy_reg
_reconstructor
p0
(cjobmanager.common
Job
p1
c__builtin__
object
p2
Ntp3
Rp4
(dp5
S'lastStateChange'
p6
F1578348692.256851
sS'retries'
p7
I0
sS'errors'
p8
I0
sS'state'
p9
S'success'
p10
sS'needs_arcclean'
p11
I00
sS'gridJobIds'
p12
(lp13
S'https://trebuchet.ijs.si:443/arex/X3gLDm33o8vnOvrWonLn5monABFKDmABFKDmMfFKDm0wOKDm0WXl5m'
p14
asS'id'
p15
S'./fold1/tocka0.2_1.0_0.6_1.0_6'
p16
sb.