ccopy_reg
_reconstructor
p0
(cjobmanager.common
Job
p1
c__builtin__
object
p2
Ntp3
Rp4
(dp5
S'lastStateChange'
p6
F1590002808.682542
sS'retries'
p7
I3
sS'errors'
p8
I0
sS'state'
p9
S'success'
p10
sS'needs_arcclean'
p11
I00
sS'gridJobIds'
p12
(lp13
S'https://maister.hpc-rivr.um.si:443/arex/1eQKDmA0fvwnQ1W8MmmAVtPoemdcfmABFKDmO6HKDmbYFKDmoaUSzm'
p14
aS'https://maister.hpc-rivr.um.si:443/arex/2NLNDmyFjvwnQ1W8MmmAVtPoemdcfmABFKDmO6HKDmAeFKDmAMd8Xo'
p15
asS'id'
p16
S'./stack_big/fold8/eksistencna_kriza0.05_1.0_0.6_0.8_2'
p17
sb.