ccopy_reg
_reconstructor
p0
(cjobmanager.common
Job
p1
c__builtin__
object
p2
Ntp3
Rp4
(dp5
S'lastStateChange'
p6
F1575877072.07291
sS'retries'
p7
I1
sS'errors'
p8
I0
sS'state'
p9
S'success'
p10
sS'needs_arcclean'
p11
I00
sS'gridJobIds'
p12
(lp13
S'https://maister.hpc-rivr.um.si:443/arex/Y5DLDmR2QwvnQ1W8MmmAVtPoemdcfmABFKDmMHLKDmDsFKDmP5RMnm'
p14
aS'https://maister.hpc-rivr.um.si:443/arex/sXZMDmE5NxvnQ1W8MmmAVtPoemdcfmABFKDmMHLKDmxUHKDmhNbUdm'
p15
asS'id'
p16
S'./imdb_big/fold0/tocka0.6_1.0_0.6_0.8_6'
p17
sb.