ccopy_reg
_reconstructor
p0
(cjobmanager.common
Job
p1
c__builtin__
object
p2
Ntp3
Rp4
(dp5
S'lastStateChange'
p6
F1592652072.724986
sS'retries'
p7
I2
sS'errors'
p8
I0
sS'state'
p9
S'new'
p10
sS'needs_arcclean'
p11
I01
sS'gridJobIds'
p12
(lp13
S'https://maister.hpc-rivr.um.si:443/arex/sGrMDmCn94wnQ1W8MmmAVtPoemdcfmABFKDmDyHKDmNEFKDm1soSUn'
p14
aS'https://maister.hpc-rivr.um.si:443/arex/ExwKDmZn65wnQ1W8MmmAVtPoemdcfmABFKDmoAMKDmnhFKDmYnl3Uo'
p15
asS'id'
p16
S'./fold9/eksistencna_kriza0.05_1.0_0.8_0.8_8'
p17
sb.