ccopy_reg
_reconstructor
p0
(cjobmanager.common
Job
p1
c__builtin__
object
p2
Ntp3
Rp4
(dp5
S'lastStateChange'
p6
F1573870742.044814
sS'retries'
p7
I1
sS'errors'
p8
I1
sS'state'
p9
S'success'
p10
sS'needs_arcclean'
p11
I00
sS'gridJobIds'
p12
(lp13
S'https://trebuchet.ijs.si:443/arex/3E9KDmIBvpvnOvrWonLn5monABFKDmABFKDmMfFKDmmKFKDmncSs6m'
p14
aS'https://trebuchet.ijs.si:443/arex/ahlMDmp4wpvnOvrWonLn5monABFKDmABFKDmMfFKDmFOFKDmRMDiem'
p15
asS'id'
p16
S'./yelp_small/fold9/tocka0.2_1.0_1.0_0.4_2'
p17
sb.