ccopy_reg
_reconstructor
p0
(cjobmanager.common
Job
p1
c__builtin__
object
p2
Ntp3
Rp4
(dp5
S'lastStateChange'
p6
F1592476295.444909
sS'retries'
p7
I2
sS'errors'
p8
I0
sS'state'
p9
S'new'
p10
sS'needs_arcclean'
p11
I01
sS'gridJobIds'
p12
(lp13
S'https://nsc.ijs.si:443/arex/6V4NDmzKN5wnWiFSGmlJ8khoABFKDmABFKDm2m8WDm07FKDmS7aI3m'
p14
aS'https://nsc.ijs.si:443/arex/s1QODms0N5wnWiFSGmlJ8khoABFKDmABFKDm2m8WDmL8FKDmZKdFMn'
p15
asS'id'
p16
S'./fold3/eksistencna_kriza0.6_1.0_1.0_0.6_6'
p17
sb.