ccopy_reg
_reconstructor
p0
(cjobmanager.common
Job
p1
c__builtin__
object
p2
Ntp3
Rp4
(dp5
S'lastStateChange'
p6
F1592580432.531654
sS'retries'
p7
I0
sS'errors'
p8
I0
sS'state'
p9
S'success'
p10
sS'needs_arcclean'
p11
I00
sS'gridJobIds'
p12
(lp13
S'https://trebuchet.ijs.si:443/arex/2XIMDmCDU6wnOvrWonLn5monABFKDmABFKDmzJKKDmEIHKDmxfobwn'
p14
asS'id'
p15
S'./carcinogenesis/fold9/tree7'
p16
sb.