ccopy_reg
_reconstructor
p0
(cjobmanager.common
Job
p1
c__builtin__
object
p2
Ntp3
Rp4
(dp5
S'lastStateChange'
p6
F1575157799.328276
sS'retries'
p7
I1
sS'errors'
p8
I0
sS'state'
p9
S'success'
p10
sS'needs_arcclean'
p11
I00
sS'gridJobIds'
p12
(lp13
S'https://trebuchet.ijs.si:443/arex/WbyKDmhbvuvnOvrWonLn5monABFKDmABFKDmMfFKDmRGHKDmJ1Lvdn'
p14
aS'https://maister.hpc-rivr.um.si:443/arex/ZJ2KDmNGIvvnQ1W8MmmAVtPoemdcfmABFKDm5fVKDmDTFKDmTBBdxm'
p15
asS'id'
p16
S'./stack_big/fold1/tocka0.6_1.0_0.6_0.8_2'
p17
sb.