ccopy_reg
_reconstructor
p0
(cjobmanager.common
Job
p1
c__builtin__
object
p2
Ntp3
Rp4
(dp5
S'lastStateChange'
p6
F1575932896.683832
sS'retries'
p7
I1
sS'errors'
p8
I0
sS'state'
p9
S'success'
p10
sS'needs_arcclean'
p11
I00
sS'gridJobIds'
p12
(lp13
S'https://maister.hpc-rivr.um.si:443/arex/NUHLDmU9OwvnQ1W8MmmAVtPoemdcfmABFKDmMHLKDmhcFKDmf4KfXn'
p14
aS'https://maister.hpc-rivr.um.si:443/arex/9RzNDmEfNxvnQ1W8MmmAVtPoemdcfmABFKDmMHLKDm3OHKDmh6k8en'
p15
asS'id'
p16
S'./imdb_big/fold4/tocka0.05_1.0_1.0_0.2_8'
p17
sb.