ccopy_reg
_reconstructor
p0
(cjobmanager.common
Job
p1
c__builtin__
object
p2
Ntp3
Rp4
(dp5
S'lastStateChange'
p6
F1589935659.774754
sS'retries'
p7
I0
sS'errors'
p8
I0
sS'state'
p9
S'success'
p10
sS'needs_arcclean'
p11
I00
sS'gridJobIds'
p12
(lp13
S'https://maister.hpc-rivr.um.si:443/arex/yCGLDmPLRvwnQ1W8MmmAVtPoemdcfmABFKDmO6HKDm0JFKDmBS1rLo'
p14
aS'https://nsc.ijs.si:443/arex/bnELDm7URvwnWiFSGmlJ8khoABFKDmABFKDmlAONDmk3IKDmnse7Pm'
p15
asS'id'
p16
S'./uwcse/fold9'
p17
sb.