ccopy_reg
_reconstructor
p0
(cjobmanager.common
Job
p1
c__builtin__
object
p2
Ntp3
Rp4
(dp5
S'lastStateChange'
p6
F1592434759.121339
sS'retries'
p7
I1
sS'errors'
p8
I0
sS'state'
p9
S'new'
p10
sS'needs_arcclean'
p11
I01
sS'gridJobIds'
p12
(lp13
S'https://nsc.ijs.si:443/arex/8TlNDmeBD5wnWiFSGmlJ8khoABFKDmABFKDm2m8WDm35FKDmPPO3bn'
p14
asS'id'
p15
S'./fold6/eksistencna_kriza0.4_1.0_1.0_sqrt_8'
p16
sb.