ccopy_reg
_reconstructor
p0
(cjobmanager.common
Job
p1
c__builtin__
object
p2
Ntp3
Rp4
(dp5
S'lastStateChange'
p6
F1592592713.703247
sS'retries'
p7
I3
sS'errors'
p8
I0
sS'state'
p9
S'success'
p10
sS'needs_arcclean'
p11
I00
sS'gridJobIds'
p12
(lp13
S'https://trebuchet.ijs.si:443/arex/TDVMDm6MS6wnOvrWonLn5monABFKDmABFKDmzJKKDmunGKDm9oz6In'
p14
aS'https://trebuchet.ijs.si:443/arex/oXcMDmGCT6wnOvrWonLn5monABFKDmABFKDmzJKKDmNyGKDma5vUgm'
p15
aS'https://trebuchet.ijs.si:443/arex/VEFODmaRT6wnOvrWonLn5monABFKDmABFKDmzJKKDmr2GKDmpyQTWm'
p16
aS'https://trebuchet.ijs.si:443/arex/xSsKDmrgT6wnOvrWonLn5monABFKDmABFKDmzJKKDmg4GKDmPS99Vn'
p17
asS'id'
p18
S'./mutagenesis/fold9'
p19
sb.