ccopy_reg
_reconstructor
p0
(cjobmanager.common
Job
p1
c__builtin__
object
p2
Ntp3
Rp4
(dp5
S'lastStateChange'
p6
F1590573862.234114
sS'retries'
p7
I1
sS'errors'
p8
I0
sS'state'
p9
S'success'
p10
sS'needs_arcclean'
p11
I00
sS'gridJobIds'
p12
(lp13
S'https://nsc.ijs.si:443/arex/bKtLDmbG3xwnWiFSGmlJ8khoABFKDmABFKDmYpJKDmNjFKDmZdaXZm'
p14
aS'https://maister.hpc-rivr.um.si:443/arex/TvgKDmfz7xwnQ1W8MmmAVtPoemdcfmABFKDmO6HKDmQIHKDmMvIOwm'
p15
asS'id'
p16
S'./fold5/eksistencna_kriza0.2_1.0_0.6_0.8_6'
p17
sb.