ccopy_reg
_reconstructor
p0
(cjobmanager.common
Job
p1
c__builtin__
object
p2
Ntp3
Rp4
(dp5
S'lastStateChange'
p6
F1592384508.029194
sS'retries'
p7
I1
sS'errors'
p8
I0
sS'state'
p9
S'success'
p10
sS'needs_arcclean'
p11
I00
sS'gridJobIds'
p12
(lp13
S'https://nsc.ijs.si:443/arex/Y7QKDm8AO5wnWiFSGmlJ8khoABFKDmABFKDm2m8WDmx8FKDmh4HzLo'
p14
aS'https://maister.hpc-rivr.um.si:443/arex/gtqLDmHER5wnQ1W8MmmAVtPoemdcfmABFKDmDyHKDmqWFKDmTFXeOm'
p15
asS'id'
p16
S'./fold3/eksistencna_kriza0.4_1.0_0.8_sqrt_4'
p17
sb.