ccopy_reg
_reconstructor
p0
(cjobmanager.common
Job
p1
c__builtin__
object
p2
Ntp3
Rp4
(dp5
S'lastStateChange'
p6
F1592013457.465889
sS'retries'
p7
I0
sS'errors'
p8
I0
sS'state'
p9
S'success'
p10
sS'needs_arcclean'
p11
I00
sS'gridJobIds'
p12
(lp13
S'https://maister.hpc-rivr.um.si:443/arex/QCGMDmSS83wnQ1W8MmmAVtPoemdcfmABFKDmgyHKDm9uGKDmeHTaQo'
p14
asS'id'
p15
S'./carcinogenesis/fold1/eksistencna_kriza0.05_1.0_1.0_1.0_2'
p16
sb.