ccopy_reg
_reconstructor
p0
(cjobmanager.common
Job
p1
c__builtin__
object
p2
Ntp3
Rp4
(dp5
S'lastStateChange'
p6
F1591039784.527827
sS'retries'
p7
I2
sS'errors'
p8
I0
sS'state'
p9
S'new'
p10
sS'needs_arcclean'
p11
I01
sS'gridJobIds'
p12
(lp13
S'https://nsc.ijs.si:443/arex/d8QNDmkQVywnWiFSGmlJ8khoABFKDmABFKDmYpJKDm9tFKDmkr14pm'
p14
aS'https://nsc.ijs.si:443/arex/mNlNDmvJMzwnWiFSGmlJ8khoABFKDmABFKDmYpJKDma4GKDm6lcCpm'
p15
asS'id'
p16
S'./fold7/tocka0.0_1'
p17
sb.