ccopy_reg
_reconstructor
p0
(cjobmanager.common
Job
p1
c__builtin__
object
p2
Ntp3
Rp4
(dp5
S'lastStateChange'
p6
F1592334624.468505
sS'retries'
p7
I1
sS'errors'
p8
I0
sS'state'
p9
S'success'
p10
sS'needs_arcclean'
p11
I00
sS'gridJobIds'
p12
(lp13
S'https://nsc.ijs.si:443/arex/LKVLDmBBO5wnWiFSGmlJ8khoABFKDmABFKDm2m8WDmy8FKDmOqW9Ho'
p14
aS'https://maister.hpc-rivr.um.si:443/arex/S3wKDmKER5wnQ1W8MmmAVtPoemdcfmABFKDmDyHKDmrWFKDmLwmBWo'
p15
asS'id'
p16
S'./fold3/eksistencna_kriza0.4_1.0_0.8_sqrt_2'
p17
sb.