ccopy_reg
_reconstructor
p0
(cjobmanager.common
Job
p1
c__builtin__
object
p2
Ntp3
Rp4
(dp5
S'lastStateChange'
p6
F1590176400.149125
sS'retries'
p7
I1
sS'errors'
p8
I0
sS'state'
p9
S'success'
p10
sS'needs_arcclean'
p11
I00
sS'gridJobIds'
p12
(lp13
S'https://maister.hpc-rivr.um.si:443/arex/5U2NDmZ8DwwnQ1W8MmmAVtPoemdcfmABFKDmO6HKDm3MGKDmX2wJNm'
p14
asS'id'
p15
S'./imdb_big/fold2/eksistencna_kriza0.2_1.0_1.0_0.4_6'
p16
sb.