ccopy_reg
_reconstructor
p0
(cjobmanager.common
Job
p1
c__builtin__
object
p2
Ntp3
Rp4
(dp5
S'lastStateChange'
p6
F1590151294.689279
sS'retries'
p7
I1
sS'errors'
p8
I0
sS'state'
p9
S'success'
p10
sS'needs_arcclean'
p11
I00
sS'gridJobIds'
p12
(lp13
S'https://nsc.ijs.si:443/arex/wlLLDmpxLwwnWiFSGmlJ8khoABFKDmABFKDmZpuNDmM2GKDmWTwQRo'
p14
asS'id'
p15
S'./basket/fold2/eksistencna_kriza0.4_1.0_0.6_1.0_2'
p16
sb.