ccopy_reg
_reconstructor
p0
(cjobmanager.common
Job
p1
c__builtin__
object
p2
Ntp3
Rp4
(dp5
S'lastStateChange'
p6
F1592564543.697156
sS'retries'
p7
I1
sS'errors'
p8
I0
sS'state'
p9
S'success'
p10
sS'needs_arcclean'
p11
I00
sS'gridJobIds'
p12
(lp13
S'https://trebuchet.ijs.si:443/arex/ANUNDmeVR6wnOvrWonLn5monABFKDmABFKDmzJKKDmsaGKDmXQYtjn'
p14
aS'https://trebuchet.ijs.si:443/arex/VBeLDmMhR6wnOvrWonLn5monABFKDmABFKDmzJKKDm7bGKDm92OQDm'
p15
asS'id'
p16
S'./carcinogenesis/fold6'
p17
sb.