ccopy_reg
_reconstructor
p0
(cjobmanager.common
Job
p1
c__builtin__
object
p2
Ntp3
Rp4
(dp5
S'lastStateChange'
p6
F1590843293.167526
sS'retries'
p7
I2
sS'errors'
p8
I0
sS'state'
p9
S'success'
p10
sS'needs_arcclean'
p11
I00
sS'gridJobIds'
p12
(lp13
S'https://maister.hpc-rivr.um.si:443/arex/ebcMDm7XBzwnQ1W8MmmAVtPoemdcfmABFKDmO6HKDmwJIKDmwxMtan'
p14
aS'https://nsc.ijs.si:443/arex/WBONDmcACzwnWiFSGmlJ8khoABFKDmABFKDmYpJKDmtuGKDmZAtdOm'
p15
aS'https://nsc.ijs.si:443/arex/NGYMDmuIDzwnWiFSGmlJ8khoABFKDmABFKDmYpJKDmo0GKDmHtzXsm'
p16
asS'id'
p17
S'./yelp_small/fold7/nec_rone_0.05_2'
p18
sb.