ccopy_reg
_reconstructor
p0
(cjobmanager.common
Job
p1
c__builtin__
object
p2
Ntp3
Rp4
(dp5
S'lastStateChange'
p6
F1590831554.299745
sS'retries'
p7
I2
sS'errors'
p8
I0
sS'state'
p9
S'success'
p10
sS'needs_arcclean'
p11
I00
sS'gridJobIds'
p12
(lp13
S'https://nsc.ijs.si:443/arex/4TtKDmDK0xwnWiFSGmlJ8khoABFKDmABFKDmYpJKDmoDFKDmhIb1gn'
p14
aS'https://nsc.ijs.si:443/arex/M2WLDmUPVywnWiFSGmlJ8khoABFKDmABFKDmYpJKDmOtFKDmrm3R7n'
p15
aS'https://nsc.ijs.si:443/arex/oYUMDmsQsywnWiFSGmlJ8khoABFKDmABFKDmYpJKDmDBGKDmBLvPFo'
p16
asS'id'
p17
S'./webkb/fold7/tocka0.01_10'
p18
sb.