ccopy_reg
_reconstructor
p0
(cjobmanager.common
Job
p1
c__builtin__
object
p2
Ntp3
Rp4
(dp5
S'lastStateChange'
p6
F1592507292.632586
sS'retries'
p7
I2
sS'errors'
p8
I0
sS'state'
p9
S'new'
p10
sS'needs_arcclean'
p11
I01
sS'gridJobIds'
p12
(lp13
S'https://nsc.ijs.si:443/arex/dp8NDmILO5wnWiFSGmlJ8khoABFKDmABFKDm2m8WDmX9FKDmQxYwNo'
p14
aS'https://maister.hpc-rivr.um.si:443/arex/r8iMDmMmR5wnQ1W8MmmAVtPoemdcfmABFKDmDyHKDmVXFKDmrS9O5m'
p15
asS'id'
p16
S'./fold3/eksistencna_kriza0.4_1.0_0.6_0.4_6'
p17
sb.