ccopy_reg
_reconstructor
p0
(cjobmanager.common
Job
p1
c__builtin__
object
p2
Ntp3
Rp4
(dp5
S'lastStateChange'
p6
F1592592108.160797
sS'retries'
p7
I3
sS'errors'
p8
I0
sS'state'
p9
S'success'
p10
sS'needs_arcclean'
p11
I00
sS'gridJobIds'
p12
(lp13
S'https://trebuchet.ijs.si:443/arex/dhwKDmGNS6wnOvrWonLn5monABFKDmABFKDmzJKKDm0nGKDmBecsIo'
p14
aS'https://trebuchet.ijs.si:443/arex/IrYNDmPCT6wnOvrWonLn5monABFKDmABFKDmzJKKDmTyGKDm7YaNJo'
p15
aS'https://trebuchet.ijs.si:443/arex/PlCMDmlRT6wnOvrWonLn5monABFKDmABFKDmzJKKDmu2GKDmfxchzm'
p16
aS'https://trebuchet.ijs.si:443/arex/yMTKDm0gT6wnOvrWonLn5monABFKDmABFKDmzJKKDml4GKDmeHazsm'
p17
asS'id'
p18
S'./mutagenesis/fold6'
p19
sb.