ccopy_reg
_reconstructor
p0
(cjobmanager.common
Job
p1
c__builtin__
object
p2
Ntp3
Rp4
(dp5
S'lastStateChange'
p6
F1590581242.67579
sS'retries'
p7
I1
sS'errors'
p8
I0
sS'state'
p9
S'success'
p10
sS'needs_arcclean'
p11
I00
sS'gridJobIds'
p12
(lp13
S'https://nsc.ijs.si:443/arex/OggMDmNv6xwnWiFSGmlJ8khoABFKDmABFKDmYpJKDmtpFKDmj3A9gm'
p14
aS'https://nsc.ijs.si:443/arex/qamLDmFx9xwnWiFSGmlJ8khoABFKDmABFKDmYpJKDm8pFKDm6GhJUm'
p15
asS'id'
p16
S'./fold2/eksistencna_kriza0.4_1.0_0.8_1.0_8'
p17
sb.