ccopy_reg
_reconstructor
p0
(cjobmanager.common
Job
p1
c__builtin__
object
p2
Ntp3
Rp4
(dp5
S'lastStateChange'
p6
F1592640321.269489
sS'retries'
p7
I1
sS'errors'
p8
I0
sS'state'
p9
S'success'
p10
sS'needs_arcclean'
p11
I00
sS'gridJobIds'
p12
(lp13
S'https://maister.hpc-rivr.um.si:443/arex/M0wMDmak94wnQ1W8MmmAVtPoemdcfmABFKDmDyHKDmZDFKDmY8p2Om'
p14
aS'https://maister.hpc-rivr.um.si:443/arex/FKJODmri65wnQ1W8MmmAVtPoemdcfmABFKDmoAMKDm6gFKDmms5zcm'
p15
asS'id'
p16
S'./fold9/eksistencna_kriza0.2_1.0_0.6_1.0_2'
p17
sb.