ccopy_reg
_reconstructor
p0
(cjobmanager.common
Job
p1
c__builtin__
object
p2
Ntp3
Rp4
(dp5
S'lastStateChange'
p6
F1574011866.084563
sS'retries'
p7
I2
sS'errors'
p8
I0
sS'state'
p9
S'success'
p10
sS'needs_arcclean'
p11
I00
sS'gridJobIds'
p12
(lp13
S'https://trebuchet.ijs.si:443/arex/5GXLDmYX8pvnOvrWonLn5monABFKDmABFKDmMfFKDmMYFKDmgskN8m'
p14
aS'https://trebuchet.ijs.si:443/arex/YRINDmtgaqvnOvrWonLn5monABFKDmABFKDmMfFKDm2jFKDmlkZoCo'
p15
asS'id'
p16
S'./yelp_small/fold6/tocka0.4_1.0_0.6_0.6_4'
p17
sb.