ccopy_reg
_reconstructor
p0
(cjobmanager.common
Job
p1
c__builtin__
object
p2
Ntp3
Rp4
(dp5
S'lastStateChange'
p6
F1592427575.470947
sS'retries'
p7
I2
sS'errors'
p8
I0
sS'state'
p9
S'new'
p10
sS'needs_arcclean'
p11
I01
sS'gridJobIds'
p12
(lp13
S'https://trebuchet.ijs.si:443/arex/MafKDmkY94wnOvrWonLn5monABFKDmABFKDmzJKKDmBDFKDmUs0qHo'
p14
aS'https://maister.hpc-rivr.um.si:443/arex/Q7FMDmIMA5wnQ1W8MmmAVtPoemdcfmABFKDmDyHKDmhLFKDmS5sXqn'
p15
asS'id'
p16
S'./fold9/eksistencna_kriza0.4_1.0_0.6_1.0_6'
p17
sb.