ccopy_reg
_reconstructor
p0
(cjobmanager.common
Job
p1
c__builtin__
object
p2
Ntp3
Rp4
(dp5
S'lastStateChange'
p6
F1592404887.042744
sS'retries'
p7
I1
sS'errors'
p8
I0
sS'state'
p9
S'success'
p10
sS'needs_arcclean'
p11
I00
sS'gridJobIds'
p12
(lp13
S'https://nsc.ijs.si:443/arex/7vvLDm72N5wnWiFSGmlJ8khoABFKDmABFKDm2m8WDmY8FKDmBX36rn'
p14
aS'https://maister.hpc-rivr.um.si:443/arex/5toKDmDlQ5wnQ1W8MmmAVtPoemdcfmABFKDmDyHKDmJWFKDmE3eDym'
p15
asS'id'
p16
S'./fold3/eksistencna_kriza0.4_1.0_1.0_sqrt_6'
p17
sb.