ccopy_reg
_reconstructor
p0
(cjobmanager.common
Job
p1
c__builtin__
object
p2
Ntp3
Rp4
(dp5
S'lastStateChange'
p6
F1592642181.727215
sS'retries'
p7
I1
sS'errors'
p8
I0
sS'state'
p9
S'new'
p10
sS'needs_arcclean'
p11
I01
sS'gridJobIds'
p12
(lp13
S'https://trebuchet.ijs.si:443/arex/lHsKDml945wnOvrWonLn5monABFKDmABFKDmzJKKDmyTFKDmIvPVWo'
p14
asS'id'
p15
S'./fold1/eksistencna_kriza0.05_1.0_0.6_0.6_6'
p16
sb.