ccopy_reg
_reconstructor
p0
(cjobmanager.common
Job
p1
c__builtin__
object
p2
Ntp3
Rp4
(dp5
S'lastStateChange'
p6
F1592566168.551963
sS'retries'
p7
I1
sS'errors'
p8
I0
sS'state'
p9
S'success'
p10
sS'needs_arcclean'
p11
I00
sS'gridJobIds'
p12
(lp13
S'https://trebuchet.ijs.si:443/arex/k0fMDm4VS6wnOvrWonLn5monABFKDmABFKDmzJKKDm6pGKDml7ViJm'
p14
aS'https://trebuchet.ijs.si:443/arex/KM7KDmNsT6wnOvrWonLn5monABFKDmABFKDmzJKKDmM8GKDm0Wfhnn'
p15
asS'id'
p16
S'./mutagenesis/fold8/tree45'
p17
sb.