ccopy_reg
_reconstructor
p0
(cjobmanager.common
Job
p1
c__builtin__
object
p2
Ntp3
Rp4
(dp5
S'lastStateChange'
p6
F1592594665.775965
sS'retries'
p7
I1
sS'errors'
p8
I0
sS'state'
p9
S'success'
p10
sS'needs_arcclean'
p11
I00
sS'gridJobIds'
p12
(lp13
S'https://trebuchet.ijs.si:443/arex/9W8NDmM7S6wnOvrWonLn5monABFKDmABFKDmzJKKDmtwGKDmC9mdTm'
p14
aS'https://trebuchet.ijs.si:443/arex/yAnNDm1MX6wnOvrWonLn5monABFKDmABFKDmzJKKDmhWHKDmWhHxem'
p15
asS'id'
p16
S'./mutagenesis/fold0/tree26'
p17
sb.