ccopy_reg
_reconstructor
p0
(cjobmanager.common
Job
p1
c__builtin__
object
p2
Ntp3
Rp4
(dp5
S'lastStateChange'
p6
F1573912082.123791
sS'retries'
p7
I0
sS'errors'
p8
I0
sS'state'
p9
S'success'
p10
sS'needs_arcclean'
p11
I00
sS'gridJobIds'
p12
(lp13
S'https://trebuchet.ijs.si:443/arex/kn0MDmWD5pvnOvrWonLn5monABFKDmABFKDmMfFKDmQVFKDmxE7ZLn'
p14
asS'id'
p15
S'./yelp_small/fold7/tocka0.05_1.0_0.8_sqrt_8'
p16
sb.