ccopy_reg
_reconstructor
p0
(cjobmanager.common
Job
p1
c__builtin__
object
p2
Ntp3
Rp4
(dp5
S'lastStateChange'
p6
F1589764312.07718
sS'retries'
p7
I1
sS'errors'
p8
I0
sS'state'
p9
S'success'
p10
sS'needs_arcclean'
p11
I00
sS'gridJobIds'
p12
(lp13
S'https://maister.hpc-rivr.um.si:443/arex/svuLDm5HmtwnQ1W8MmmAVtPoemdcfmABFKDmxtKKDmx5mKDm7Lersm'
p14
aS'https://nsc.ijs.si:443/arex/0u7KDmyAjuwnWiFSGmlJ8khoABFKDmABFKDmlAONDmi1IKDmPeL1Xo'
p15
asS'id'
p16
S'./movie/fold7/eksistencna_kriza0.6_1.0_0.6_0.2_8'
p17
sb.