ccopy_reg
_reconstructor
p0
(cjobmanager.common
Job
p1
c__builtin__
object
p2
Ntp3
Rp4
(dp5
S'lastStateChange'
p6
F1590843775.605682
sS'retries'
p7
I0
sS'errors'
p8
I0
sS'state'
p9
S'success'
p10
sS'needs_arcclean'
p11
I00
sS'gridJobIds'
p12
(lp13
S'https://nsc.ijs.si:443/arex/oX7NDmJNDzwnWiFSGmlJ8khoABFKDmABFKDmYpJKDmo1GKDm63gjIm'
p14
asS'id'
p15
S'./yelp_small/fold0/nec_rone_0.2_2'
p16
sb.