ccopy_reg
_reconstructor
p0
(cjobmanager.common
Job
p1
c__builtin__
object
p2
Ntp3
Rp4
(dp5
S'lastStateChange'
p6
F1575308832.303883
sS'retries'
p7
I1
sS'errors'
p8
I0
sS'state'
p9
S'success'
p10
sS'needs_arcclean'
p11
I00
sS'gridJobIds'
p12
(lp13
S'https://trebuchet.ijs.si:443/arex/A9TNDmtkwuvnOvrWonLn5monABFKDmABFKDmMfFKDmKIHKDmXnXxTn'
p14
aS'https://trebuchet.ijs.si:443/arex/evgKDmDWIvvnOvrWonLn5monABFKDmABFKDmMfFKDmEdHKDmP1Lm5n'
p15
asS'id'
p16
S'./stack_big/fold1/tocka0.4_1.0_1.0_1.0_8'
p17
sb.