ccopy_reg
_reconstructor
p0
(cjobmanager.common
Job
p1
c__builtin__
object
p2
Ntp3
Rp4
(dp5
S'lastStateChange'
p6
F1589767346.651624
sS'retries'
p7
I1
sS'errors'
p8
I0
sS'state'
p9
S'success'
p10
sS'needs_arcclean'
p11
I00
sS'gridJobIds'
p12
(lp13
S'https://maister.hpc-rivr.um.si:443/arex/8yFODmyrqtwnQ1W8MmmAVtPoemdcfmABFKDmxtKKDmv7mKDmBbbV5m'
p14
aS'https://nsc.ijs.si:443/arex/BHsNDmSCjuwnWiFSGmlJ8khoABFKDmABFKDmlAONDm71IKDmFxapRn'
p15
asS'id'
p16
S'./imdb_big/fold9/eksistencna_kriza0.6_1.0_1.0_0.2_2'
p17
sb.