ccopy_reg
_reconstructor
p0
(cjobmanager.common
Job
p1
c__builtin__
object
p2
Ntp3
Rp4
(dp5
S'lastStateChange'
p6
F1592561174.859904
sS'retries'
p7
I2
sS'errors'
p8
I0
sS'state'
p9
S'success'
p10
sS'needs_arcclean'
p11
I00
sS'gridJobIds'
p12
(lp13
S'https://trebuchet.ijs.si:443/arex/F9eKDm3UR6wnOvrWonLn5monABFKDmABFKDmzJKKDmWaGKDmnN6RWn'
p14
aS'https://trebuchet.ijs.si:443/arex/tibLDmgXR6wnOvrWonLn5monABFKDmABFKDmzJKKDm0aGKDmytSzgn'
p15
aS'https://trebuchet.ijs.si:443/arex/jm6KDmtiR6wnOvrWonLn5monABFKDmABFKDmzJKKDmFcGKDm4qvWMn'
p16
asS'id'
p17
S'./mutagenesis/fold8'
p18
sb.