ccopy_reg
_reconstructor
p0
(cjobmanager.common
Job
p1
c__builtin__
object
p2
Ntp3
Rp4
(dp5
S'lastStateChange'
p6
F1592561195.17609
sS'retries'
p7
I2
sS'errors'
p8
I0
sS'state'
p9
S'success'
p10
sS'needs_arcclean'
p11
I00
sS'gridJobIds'
p12
(lp13
S'https://trebuchet.ijs.si:443/arex/356NDmLVR6wnOvrWonLn5monABFKDmABFKDmzJKKDmiaGKDmzhad9n'
p14
aS'https://trebuchet.ijs.si:443/arex/AWGODm0XR6wnOvrWonLn5monABFKDmABFKDmzJKKDm8aGKDmBtQVDm'
p15
aS'https://trebuchet.ijs.si:443/arex/b9VNDmCjR6wnOvrWonLn5monABFKDmABFKDmzJKKDmLcGKDmmNI5em'
p16
asS'id'
p17
S'./mutagenesis/fold2'
p18
sb.