ccopy_reg
_reconstructor
p0
(cjobmanager.common
Job
p1
c__builtin__
object
p2
Ntp3
Rp4
(dp5
S'lastStateChange'
p6
F1590835129.952534
sS'retries'
p7
I0
sS'errors'
p8
I0
sS'state'
p9
S'success'
p10
sS'needs_arcclean'
p11
I00
sS'gridJobIds'
p12
(lp13
S'https://maister.hpc-rivr.um.si:443/arex/8naLDm1DCzwnQ1W8MmmAVtPoemdcfmABFKDmO6HKDmaLIKDm5xSGdn'
p14
asS'id'
p15
S'./stack_big/fold9/nec_rone_0.05_8'
p16
sb.