ccopy_reg
_reconstructor
p0
(cjobmanager.common
Job
p1
c__builtin__
object
p2
Ntp3
Rp4
(dp5
S'lastStateChange'
p6
F1592570913.081621
sS'retries'
p7
I1
sS'errors'
p8
I0
sS'state'
p9
S'success'
p10
sS'needs_arcclean'
p11
I00
sS'gridJobIds'
p12
(lp13
S'https://trebuchet.ijs.si:443/arex/oVSMDmbcS6wnOvrWonLn5monABFKDmABFKDmzJKKDm5rGKDmzV37Xn'
p14
aS'https://trebuchet.ijs.si:443/arex/6YYKDmSyT6wnOvrWonLn5monABFKDmABFKDmzJKKDmGCHKDmHypJim'
p15
asS'id'
p16
S'./mutagenesis/fold6/tree24'
p17
sb.