ccopy_reg
_reconstructor
p0
(cjobmanager.common
Job
p1
c__builtin__
object
p2
Ntp3
Rp4
(dp5
S'lastStateChange'
p6
F1590821059.124308
sS'retries'
p7
I2
sS'errors'
p8
I0
sS'state'
p9
S'success'
p10
sS'needs_arcclean'
p11
I00
sS'gridJobIds'
p12
(lp13
S'https://nsc.ijs.si:443/arex/dWjMDmvM0xwnWiFSGmlJ8khoABFKDmABFKDmYpJKDmgEFKDmf3WYpm'
p14
aS'https://nsc.ijs.si:443/arex/BiQODmuPVywnWiFSGmlJ8khoABFKDmABFKDmYpJKDmetFKDmvykr3m'
p15
aS'https://nsc.ijs.si:443/arex/ZOdNDmbUsywnWiFSGmlJ8khoABFKDmABFKDmYpJKDm2CGKDmyTUDam'
p16
asS'id'
p17
S'./webkb/fold5/tocka0.02_15'
p18
sb.