ccopy_reg
_reconstructor
p0
(cjobmanager.common
Job
p1
c__builtin__
object
p2
Ntp3
Rp4
(dp5
S'lastStateChange'
p6
F1589938290.567704
sS'retries'
p7
I0
sS'errors'
p8
I0
sS'state'
p9
S'success'
p10
sS'needs_arcclean'
p11
I00
sS'gridJobIds'
p12
(lp13
S'https://maister.hpc-rivr.um.si:443/arex/HD6NDmxLRvwnQ1W8MmmAVtPoemdcfmABFKDmO6HKDmBKFKDmkH5sLo'
p14
aS'https://nsc.ijs.si:443/arex/Gd1KDmhVRvwnWiFSGmlJ8khoABFKDmABFKDmlAONDmv3IKDmqXb1Tn'
p15
asS'id'
p16
S'./stack_big/fold7'
p17
sb.