ccopy_reg
_reconstructor
p0
(cjobmanager.common
Job
p1
c__builtin__
object
p2
Ntp3
Rp4
(dp5
S'lastStateChange'
p6
F1592427676.45021
sS'retries'
p7
I2
sS'errors'
p8
I0
sS'state'
p9
S'new'
p10
sS'needs_arcclean'
p11
I01
sS'gridJobIds'
p12
(lp13
S'https://trebuchet.ijs.si:443/arex/Z6qNDmcZ94wnOvrWonLn5monABFKDmABFKDmzJKKDmkDFKDmjcUVSn'
p14
aS'https://maister.hpc-rivr.um.si:443/arex/8OOKDm1NA5wnQ1W8MmmAVtPoemdcfmABFKDmDyHKDmGMFKDmCiEhSo'
p15
asS'id'
p16
S'./fold9/eksistencna_kriza0.2_1.0_1.0_0.4_8'
p17
sb.