ccopy_reg
_reconstructor
p0
(cjobmanager.common
Job
p1
c__builtin__
object
p2
Ntp3
Rp4
(dp5
S'lastStateChange'
p6
F1575392252.076451
sS'retries'
p7
I0
sS'errors'
p8
I0
sS'state'
p9
S'success'
p10
sS'needs_arcclean'
p11
I00
sS'gridJobIds'
p12
(lp13
S'https://maister.hpc-rivr.um.si:443/arex/3HWLDmoRLwvnQ1W8MmmAVtPoemdcfmABFKDmMHLKDmNCFKDmC987An'
p14
asS'id'
p15
S'./movie/fold1/tocka0.6_1.0_0.6_0.4_4'
p16
sb.