ccopy_reg
_reconstructor
p0
(cjobmanager.common
Job
p1
c__builtin__
object
p2
Ntp3
Rp4
(dp5
S'lastStateChange'
p6
F1589768478.015297
sS'retries'
p7
I1
sS'errors'
p8
I0
sS'state'
p9
S'success'
p10
sS'needs_arcclean'
p11
I00
sS'gridJobIds'
p12
(lp13
S'https://maister.hpc-rivr.um.si:443/arex/Fl3MDmF2rtwnQ1W8MmmAVtPoemdcfmABFKDmxtKKDmp9mKDmdtxyDo'
p14
aS'https://nsc.ijs.si:443/arex/OTuKDmlIjuwnWiFSGmlJ8khoABFKDmABFKDmlAONDmW2IKDmkXNqhn'
p15
asS'id'
p16
S'./imdb_big/fold8/eksistencna_kriza0.2_1.0_1.0_0.8_2'
p17
sb.