ccopy_reg
_reconstructor
p0
(cjobmanager.common
Job
p1
c__builtin__
object
p2
Ntp3
Rp4
(dp5
S'lastStateChange'
p6
F1592441695.98769
sS'retries'
p7
I1
sS'errors'
p8
I0
sS'state'
p9
S'new'
p10
sS'needs_arcclean'
p11
I01
sS'gridJobIds'
p12
(lp13
S'https://nsc.ijs.si:443/arex/v0xLDmX0E5wnWiFSGmlJ8khoABFKDmABFKDm2m8WDmB7FKDmQLqBLn'
p14
asS'id'
p15
S'./fold6/eksistencna_kriza0.4_1.0_0.6_0.2_4'
p16
sb.