ccopy_reg
_reconstructor
p0
(cjobmanager.common
Job
p1
c__builtin__
object
p2
Ntp3
Rp4
(dp5
S'lastStateChange'
p6
F1578187228.826057
sS'retries'
p7
I0
sS'errors'
p8
I0
sS'state'
p9
S'success'
p10
sS'needs_arcclean'
p11
I00
sS'gridJobIds'
p12
(lp13
S'https://trebuchet.ijs.si:443/arex/kNFKDmqJb6vnOvrWonLn5monABFKDmABFKDmMfFKDmeIOKDmeKxprm'
p14
asS'id'
p15
S'./webkb1/fold0/tree0'
p16
sb.