ccopy_reg
_reconstructor
p0
(cjobmanager.common
Job
p1
c__builtin__
object
p2
Ntp3
Rp4
(dp5
S'lastStateChange'
p6
F1592594236.521307
sS'retries'
p7
I3
sS'errors'
p8
I0
sS'state'
p9
S'success'
p10
sS'needs_arcclean'
p11
I00
sS'gridJobIds'
p12
(lp13
S'https://trebuchet.ijs.si:443/arex/BQ1KDmPNS6wnOvrWonLn5monABFKDmABFKDmzJKKDm6nGKDm2i8zOn'
p14
aS'https://trebuchet.ijs.si:443/arex/TVRKDmYCT6wnOvrWonLn5monABFKDmABFKDmzJKKDmZyGKDm6Ep6Oo'
p15
aS'https://trebuchet.ijs.si:443/arex/p5zKDmvRT6wnOvrWonLn5monABFKDmABFKDmzJKKDmx2GKDm9nECmm'
p16
aS'https://trebuchet.ijs.si:443/arex/KrVLDmAhT6wnOvrWonLn5monABFKDmABFKDmzJKKDms4GKDmRMqodn'
p17
asS'id'
p18
S'./mutagenesis/fold3'
p19
sb.