ccopy_reg
_reconstructor
p0
(cjobmanager.common
Job
p1
c__builtin__
object
p2
Ntp3
Rp4
(dp5
S'lastStateChange'
p6
F1592556844.283508
sS'retries'
p7
I2
sS'errors'
p8
I0
sS'state'
p9
S'success'
p10
sS'needs_arcclean'
p11
I00
sS'gridJobIds'
p12
(lp13
S'https://trebuchet.ijs.si:443/arex/xLaNDmXUR6wnOvrWonLn5monABFKDmABFKDmzJKKDmLaGKDmenmcdm'
p14
aS'https://trebuchet.ijs.si:443/arex/dt1NDmuXR6wnOvrWonLn5monABFKDmABFKDmzJKKDm5aGKDmCZr6tn'
p15
aS'https://trebuchet.ijs.si:443/arex/PwsNDmCdR6wnOvrWonLn5monABFKDmABFKDmzJKKDmRbGKDmmLCQhm'
p16
asS'id'
p17
S'./mutagenesis/fold9'
p18
sb.