ccopy_reg
_reconstructor
p0
(cjobmanager.common
Job
p1
c__builtin__
object
p2
Ntp3
Rp4
(dp5
S'lastStateChange'
p6
F1590845244.242877
sS'retries'
p7
I1
sS'errors'
p8
I0
sS'state'
p9
S'success'
p10
sS'needs_arcclean'
p11
I00
sS'gridJobIds'
p12
(lp13
S'https://nsc.ijs.si:443/arex/bGeNDmfDCzwnWiFSGmlJ8khoABFKDmABFKDmYpJKDm7vGKDmuAFTIn'
p14
aS'https://nsc.ijs.si:443/arex/4gMKDmRNDzwnWiFSGmlJ8khoABFKDmABFKDmYpJKDms1GKDmwUrYNn'
p15
asS'id'
p16
S'./yelp_small/fold0/nec_rone_0.05_2'
p17
sb.