ccopy_reg
_reconstructor
p0
(cjobmanager.common
Job
p1
c__builtin__
object
p2
Ntp3
Rp4
(dp5
S'lastStateChange'
p6
F1592565618.508522
sS'retries'
p7
I0
sS'errors'
p8
I0
sS'state'
p9
S'success'
p10
sS'needs_arcclean'
p11
I00
sS'gridJobIds'
p12
(lp13
S'https://trebuchet.ijs.si:443/arex/A6CNDmhNS6wnOvrWonLn5monABFKDmABFKDmzJKKDmIoGKDmXyKmrm'
p14
asS'id'
p15
S'./carcinogenesis/fold7'
p16
sb.