ccopy_reg
_reconstructor
p0
(cjobmanager.common
Job
p1
c__builtin__
object
p2
Ntp3
Rp4
(dp5
S'lastStateChange'
p6
F1591054971.580366
sS'retries'
p7
I2
sS'errors'
p8
I0
sS'state'
p9
S'new'
p10
sS'needs_arcclean'
p11
I01
sS'gridJobIds'
p12
(lp13
S'https://nsc.ijs.si:443/arex/9mJNDmmTVywnWiFSGmlJ8khoABFKDmABFKDmYpJKDmqvFKDmjeGOPo'
p14
aS'https://nsc.ijs.si:443/arex/MjIMDmzFQzwnWiFSGmlJ8khoABFKDmABFKDmYpJKDmc4GKDmUj4HBn'
p15
asS'id'
p16
S'./fold5/tocka0.0_1'
p17
sb.