ccopy_reg
_reconstructor
p0
(cjobmanager.common
Job
p1
c__builtin__
object
p2
Ntp3
Rp4
(dp5
S'lastStateChange'
p6
F1589764445.180359
sS'retries'
p7
I1
sS'errors'
p8
I0
sS'state'
p9
S'success'
p10
sS'needs_arcclean'
p11
I00
sS'gridJobIds'
p12
(lp13
S'https://maister.hpc-rivr.um.si:443/arex/3h5LDme9mtwnQ1W8MmmAVtPoemdcfmABFKDmxtKKDmb6mKDm47DsQm'
p14
aS'https://nsc.ijs.si:443/arex/lqbMDm9BjuwnWiFSGmlJ8khoABFKDmABFKDmlAONDm21IKDmf04vun'
p15
asS'id'
p16
S'./movie/fold6/eksistencna_kriza0.2_1.0_0.8_1.0_4'
p17
sb.