ccopy_reg
_reconstructor
p0
(cjobmanager.common
Job
p1
c__builtin__
object
p2
Ntp3
Rp4
(dp5
S'lastStateChange'
p6
F1592026266.185947
sS'retries'
p7
I1
sS'errors'
p8
I0
sS'state'
p9
S'success'
p10
sS'needs_arcclean'
p11
I00
sS'gridJobIds'
p12
(lp13
S'https://nsc.ijs.si:443/arex/RoULDmnM73wnWiFSGmlJ8khoABFKDmABFKDm2m8WDmJyFKDmb3CHdn'
p14
aS'https://nsc.ijs.si:443/arex/QfSMDmDj93wnWiFSGmlJ8khoABFKDmABFKDm2m8WDmv3FKDmxDzqJo'
p15
asS'id'
p16
S'./carcinogenesis/fold2/eksistencna_kriza0.2_1.0_0.6_0.8_4'
p17
sb.