ccopy_reg
_reconstructor
p0
(cjobmanager.common
Job
p1
c__builtin__
object
p2
Ntp3
Rp4
(dp5
S'lastStateChange'
p6
F1592508427.368989
sS'retries'
p7
I2
sS'errors'
p8
I0
sS'state'
p9
S'new'
p10
sS'needs_arcclean'
p11
I01
sS'gridJobIds'
p12
(lp13
S'https://nsc.ijs.si:443/arex/fFvKDmeZO5wnWiFSGmlJ8khoABFKDmABFKDm2m8WDmDAGKDmKB9xKm'
p14
aS'https://maister.hpc-rivr.um.si:443/arex/T2fKDmnOV5wnQ1W8MmmAVtPoemdcfmABFKDmDyHKDmIZFKDmHUDn0m'
p15
asS'id'
p16
S'./fold3/eksistencna_kriza0.2_1.0_0.8_0.8_2'
p17
sb.