ccopy_reg
_reconstructor
p0
(cjobmanager.common
Job
p1
c__builtin__
object
p2
Ntp3
Rp4
(dp5
S'lastStateChange'
p6
F1575810608.979922
sS'retries'
p7
I1
sS'errors'
p8
I0
sS'state'
p9
S'success'
p10
sS'needs_arcclean'
p11
I00
sS'gridJobIds'
p12
(lp13
S'https://maister.hpc-rivr.um.si:443/arex/ZYkLDmD2OwvnQ1W8MmmAVtPoemdcfmABFKDmMHLKDmBbFKDmyzD0kn'
p14
aS'https://maister.hpc-rivr.um.si:443/arex/A0ZMDmmcNxvnQ1W8MmmAVtPoemdcfmABFKDmMHLKDmOOHKDm4xX8ln'
p15
asS'id'
p16
S'./imdb_big/fold4/tocka0.2_1.0_1.0_sqrt_6'
p17
sb.