ccopy_reg
_reconstructor
p0
(cjobmanager.common
Job
p1
c__builtin__
object
p2
Ntp3
Rp4
(dp5
S'lastStateChange'
p6
F1592594843.549901
sS'retries'
p7
I3
sS'errors'
p8
I0
sS'state'
p9
S'success'
p10
sS'needs_arcclean'
p11
I00
sS'gridJobIds'
p12
(lp13
S'https://trebuchet.ijs.si:443/arex/1WPKDmMNS6wnOvrWonLn5monABFKDmABFKDmzJKKDm4nGKDmktdQon'
p14
aS'https://trebuchet.ijs.si:443/arex/6esKDmVCT6wnOvrWonLn5monABFKDmABFKDmzJKKDmXyGKDmMSAqIn'
p15
aS'https://trebuchet.ijs.si:443/arex/lIYMDmsRT6wnOvrWonLn5monABFKDmABFKDmzJKKDmw2GKDmWamdMn'
p16
aS'https://trebuchet.ijs.si:443/arex/daTLDm7gT6wnOvrWonLn5monABFKDmABFKDmzJKKDmq4GKDmLyYmRm'
p17
asS'id'
p18
S'./mutagenesis/fold4'
p19
sb.