ccopy_reg
_reconstructor
p0
(cjobmanager.common
Job
p1
c__builtin__
object
p2
Ntp3
Rp4
(dp5
S'lastStateChange'
p6
F1592018551.658111
sS'retries'
p7
I1
sS'errors'
p8
I0
sS'state'
p9
S'success'
p10
sS'needs_arcclean'
p11
I00
sS'gridJobIds'
p12
(lp13
S'https://nsc.ijs.si:443/arex/ESsNDmDx43wnWiFSGmlJ8khoABFKDmABFKDm2m8WDmjsFKDmPcTEKm'
p14
aS'https://maister.hpc-rivr.um.si:443/arex/nHKMDmqi93wnQ1W8MmmAVtPoemdcfmABFKDmgyHKDmt0GKDmyqynfm'
p15
asS'id'
p16
S'./carcinogenesis/fold4/eksistencna_kriza0.2_1.0_1.0_0.4_8'
p17
sb.