ccopy_reg
_reconstructor
p0
(cjobmanager.common
Job
p1
c__builtin__
object
p2
Ntp3
Rp4
(dp5
S'lastStateChange'
p6
F1589764252.742658
sS'retries'
p7
I1
sS'errors'
p8
I0
sS'state'
p9
S'success'
p10
sS'needs_arcclean'
p11
I00
sS'gridJobIds'
p12
(lp13
S'https://maister.hpc-rivr.um.si:443/arex/gayLDmjGmtwnQ1W8MmmAVtPoemdcfmABFKDmxtKKDmn5mKDmjdUZyn'
p14
aS'https://nsc.ijs.si:443/arex/2KPMDmUAjuwnWiFSGmlJ8khoABFKDmABFKDmlAONDma1IKDmA1n6Qm'
p15
asS'id'
p16
S'./movie/fold7/eksistencna_kriza0.6_1.0_0.6_sqrt_8'
p17
sb.