ccopy_reg
_reconstructor
p0
(cjobmanager.common
Job
p1
c__builtin__
object
p2
Ntp3
Rp4
(dp5
S'lastStateChange'
p6
F1592467796.293695
sS'retries'
p7
I1
sS'errors'
p8
I0
sS'state'
p9
S'new'
p10
sS'needs_arcclean'
p11
I01
sS'gridJobIds'
p12
(lp13
S'https://trebuchet.ijs.si:443/arex/iJuKDmFlL5wnOvrWonLn5monABFKDmABFKDmzJKKDmNGFKDm9t832n'
p14
asS'id'
p15
S'./fold5/eksistencna_kriza0.6_1.0_0.8_0.2_6'
p16
sb.