ccopy_reg
_reconstructor
p0
(cjobmanager.common
Job
p1
c__builtin__
object
p2
Ntp3
Rp4
(dp5
S'lastStateChange'
p6
F1590591668.903879
sS'retries'
p7
I3
sS'errors'
p8
I0
sS'state'
p9
S'failure'
p10
sS'needs_arcclean'
p11
I01
sS'gridJobIds'
p12
(lp13
S'https://nsc.ijs.si:443/arex/STSNDmgX6xwnWiFSGmlJ8khoABFKDmABFKDmYpJKDm2nFKDmceNLTo'
p14
aS'https://nsc.ijs.si:443/arex/PXfNDmfl9xwnWiFSGmlJ8khoABFKDmABFKDmYpJKDm6pFKDm9c04tm'
p15
aS'https://nsc.ijs.si:443/arex/kIVNDmbkAywnWiFSGmlJ8khoABFKDmABFKDmYpJKDmBqFKDm55LCSn'
p16
aS'https://nsc.ijs.si:443/arex/p6SLDmKkBywnWiFSGmlJ8khoABFKDmABFKDmYpJKDmEqFKDmTxQgum'
p17
asS'id'
p18
S'./fold3/eksistencna_kriza0.05_1.0_0.6_0.6_6'
p19
sb.