ccopy_reg
_reconstructor
p0
(cjobmanager.common
Job
p1
c__builtin__
object
p2
Ntp3
Rp4
(dp5
S'lastStateChange'
p6
F1590841749.915141
sS'retries'
p7
I3
sS'errors'
p8
I0
sS'state'
p9
S'success'
p10
sS'needs_arcclean'
p11
I00
sS'gridJobIds'
p12
(lp13
S'https://maister.hpc-rivr.um.si:443/arex/EoQMDmfXBzwnQ1W8MmmAVtPoemdcfmABFKDmO6HKDmmJIKDmYqHrOm'
p14
aS'https://nsc.ijs.si:443/arex/kriNDmInBzwnWiFSGmlJ8khoABFKDmABFKDmYpJKDmOuGKDmqhpvRn'
p15
aS'https://nsc.ijs.si:443/arex/XEnMDm69BzwnWiFSGmlJ8khoABFKDmABFKDmYpJKDmjuGKDmOvsGMn'
p16
aS'https://nsc.ijs.si:443/arex/Q0pLDmIIDzwnWiFSGmlJ8khoABFKDmABFKDmYpJKDmU0GKDmTSDPPo'
p17
asS'id'
p18
S'./yelp_small/fold8/nec_rone_0.2_2'
p19
sb.