ccopy_reg
_reconstructor
p0
(cjobmanager.common
Job
p1
c__builtin__
object
p2
Ntp3
Rp4
(dp5
S'lastStateChange'
p6
F1589940991.562724
sS'retries'
p7
I0
sS'errors'
p8
I0
sS'state'
p9
S'success'
p10
sS'needs_arcclean'
p11
I00
sS'gridJobIds'
p12
(lp13
S'https://nsc.ijs.si:443/arex/cieNDmcYRvwnWiFSGmlJ8khoABFKDmABFKDmlAONDmE5IKDmE3xjan'
p14
aS'https://nsc.ijs.si:443/arex/VaiKDmykRvwnWiFSGmlJ8khoABFKDmABFKDmlAONDmI7IKDmrItp6n'
p15
asS'id'
p16
S'./stack_big/fold5'
p17
sb.