ccopy_reg
_reconstructor
p0
(cjobmanager.common
Job
p1
c__builtin__
object
p2
Ntp3
Rp4
(dp5
S'lastStateChange'
p6
F1575391082.981704
sS'retries'
p7
I1
sS'errors'
p8
I0
sS'state'
p9
S'success'
p10
sS'needs_arcclean'
p11
I00
sS'gridJobIds'
p12
(lp13
S'https://trebuchet.ijs.si:443/arex/SFHLDmlqyvvnOvrWonLn5monABFKDmABFKDmMfFKDmxoHKDmPa1smm'
p14
aS'https://maister.hpc-rivr.um.si:443/arex/zFENDmfPLwvnQ1W8MmmAVtPoemdcfmABFKDmMHLKDmnBFKDm5KyGUm'
p15
asS'id'
p16
S'./movie/fold6/tocka0.4_1.0_0.6_sqrt_4'
p17
sb.