ccopy_reg
_reconstructor
p0
(cjobmanager.common
Job
p1
c__builtin__
object
p2
Ntp3
Rp4
(dp5
S'lastStateChange'
p6
F1590005923.846551
sS'retries'
p7
I2
sS'errors'
p8
I0
sS'state'
p9
S'success'
p10
sS'needs_arcclean'
p11
I00
sS'gridJobIds'
p12
(lp13
S'https://maister.hpc-rivr.um.si:443/arex/ixONDmh9jvwnQ1W8MmmAVtPoemdcfmABFKDmO6HKDmOnFKDmkJbNhn'
p14
asS'id'
p15
S'./stack_big/fold3/eksistencna_kriza0.6_1.0_1.0_0.6_2'
p16
sb.