ccopy_reg
_reconstructor
p0
(cjobmanager.common
Job
p1
c__builtin__
object
p2
Ntp3
Rp4
(dp5
S'lastStateChange'
p6
F1592593017.320834
sS'retries'
p7
I3
sS'errors'
p8
I0
sS'state'
p9
S'success'
p10
sS'needs_arcclean'
p11
I00
sS'gridJobIds'
p12
(lp13
S'https://trebuchet.ijs.si:443/arex/EscKDmJNS6wnOvrWonLn5monABFKDmABFKDmzJKKDm2nGKDmQdijOo'
p14
aS'https://trebuchet.ijs.si:443/arex/3mOMDmSCT6wnOvrWonLn5monABFKDmABFKDmzJKKDmVyGKDmUXrxJm'
p15
aS'https://trebuchet.ijs.si:443/arex/AB0KDmpRT6wnOvrWonLn5monABFKDmABFKDmzJKKDmv2GKDmTAlRWo'
p16
aS'https://trebuchet.ijs.si:443/arex/SA3LDm3gT6wnOvrWonLn5monABFKDmABFKDmzJKKDmo4GKDm1EkESn'
p17
asS'id'
p18
S'./mutagenesis/fold5'
p19
sb.