ccopy_reg
_reconstructor
p0
(cjobmanager.common
Job
p1
c__builtin__
object
p2
Ntp3
Rp4
(dp5
S'lastStateChange'
p6
F1592556850.414722
sS'retries'
p7
I2
sS'errors'
p8
I0
sS'state'
p9
S'success'
p10
sS'needs_arcclean'
p11
I00
sS'gridJobIds'
p12
(lp13
S'https://trebuchet.ijs.si:443/arex/2VdNDmeUR6wnOvrWonLn5monABFKDmABFKDmzJKKDmNaGKDmecNj7m'
p14
aS'https://trebuchet.ijs.si:443/arex/o4XLDm1XR6wnOvrWonLn5monABFKDmABFKDmzJKKDm9aGKDmqRE8Qo'
p15
aS'https://trebuchet.ijs.si:443/arex/vV8KDmJdR6wnOvrWonLn5monABFKDmABFKDmzJKKDmTbGKDmhjvhWo'
p16
asS'id'
p17
S'./mutagenesis/fold7'
p18
sb.