ccopy_reg
_reconstructor
p0
(cjobmanager.common
Job
p1
c__builtin__
object
p2
Ntp3
Rp4
(dp5
S'lastStateChange'
p6
F1590841750.670821
sS'retries'
p7
I1
sS'errors'
p8
I0
sS'state'
p9
S'success'
p10
sS'needs_arcclean'
p11
I00
sS'gridJobIds'
p12
(lp13
S'https://nsc.ijs.si:443/arex/1dHNDmPACzwnWiFSGmlJ8khoABFKDmABFKDmYpJKDmpuGKDmQx0Yam'
p14
aS'https://nsc.ijs.si:443/arex/X4fMDmbIDzwnWiFSGmlJ8khoABFKDmABFKDmYpJKDmg0GKDmFDJdyn'
p15
asS'id'
p16
S'./yelp_small/fold7/nec_rone_0.4_2'
p17
sb.