ccopy_reg
_reconstructor
p0
(cjobmanager.common
Job
p1
c__builtin__
object
p2
Ntp3
Rp4
(dp5
S'lastStateChange'
p6
F1592651956.556809
sS'retries'
p7
I2
sS'errors'
p8
I0
sS'state'
p9
S'new'
p10
sS'needs_arcclean'
p11
I01
sS'gridJobIds'
p12
(lp13
S'https://maister.hpc-rivr.um.si:443/arex/mOxMDmRm94wnQ1W8MmmAVtPoemdcfmABFKDmDyHKDm7DFKDmCf7SLn'
p14
aS'https://maister.hpc-rivr.um.si:443/arex/v4WNDmLm65wnQ1W8MmmAVtPoemdcfmABFKDmoAMKDmahFKDmnBICmn'
p15
asS'id'
p16
S'./fold9/eksistencna_kriza0.05_1.0_1.0_0.4_6'
p17
sb.