ccopy_reg
_reconstructor
p0
(cjobmanager.common
Job
p1
c__builtin__
object
p2
Ntp3
Rp4
(dp5
S'lastStateChange'
p6
F1591944475.584158
sS'retries'
p7
I0
sS'errors'
p8
I0
sS'state'
p9
S'success'
p10
sS'needs_arcclean'
p11
I00
sS'gridJobIds'
p12
(lp13
S'https://maister.hpc-rivr.um.si:443/arex/oNUNDmbXo3wnQ1W8MmmAVtPoemdcfmABFKDmgyHKDmE5FKDm0IrMOo'
p14
asS'id'
p15
S'./mutagenesis/fold5/eksistencna_kriza0.2_1.0_1.0_1.0_8'
p16
sb.