ccopy_reg
_reconstructor
p0
(cjobmanager.common
Job
p1
c__builtin__
object
p2
Ntp3
Rp4
(dp5
S'lastStateChange'
p6
F1592317281.311135
sS'retries'
p7
I1
sS'errors'
p8
I0
sS'state'
p9
S'success'
p10
sS'needs_arcclean'
p11
I00
sS'gridJobIds'
p12
(lp13
S'https://trebuchet.ijs.si:443/arex/KqtNDmGZ94wnOvrWonLn5monABFKDmABFKDmzJKKDmWDFKDmdlRMcm'
p14
aS'https://maister.hpc-rivr.um.si:443/arex/ENMNDmJNA5wnQ1W8MmmAVtPoemdcfmABFKDmDyHKDm2LFKDm8G0Imn'
p15
asS'id'
p16
S'./fold9/eksistencna_kriza0.2_1.0_1.0_sqrt_4'
p17
sb.