ccopy_reg
_reconstructor
p0
(cjobmanager.common
Job
p1
c__builtin__
object
p2
Ntp3
Rp4
(dp5
S'lastStateChange'
p6
F1592490332.023039
sS'retries'
p7
I2
sS'errors'
p8
I0
sS'state'
p9
S'new'
p10
sS'needs_arcclean'
p11
I01
sS'gridJobIds'
p12
(lp13
S'https://nsc.ijs.si:443/arex/hoAODm8NN5wnWiFSGmlJ8khoABFKDmABFKDm2m8WDmA8FKDmHz8Svn'
p14
aS'https://maister.hpc-rivr.um.si:443/arex/KRpKDml5P5wnQ1W8MmmAVtPoemdcfmABFKDmDyHKDmmVFKDm93e2hm'
p15
asS'id'
p16
S'./fold3/eksistencna_kriza0.6_1.0_0.8_0.6_8'
p17
sb.