ccopy_reg
_reconstructor
p0
(cjobmanager.common
Job
p1
c__builtin__
object
p2
Ntp3
Rp4
(dp5
S'lastStateChange'
p6
F1578336457.098217
sS'retries'
p7
I0
sS'errors'
p8
I0
sS'state'
p9
S'success'
p10
sS'needs_arcclean'
p11
I00
sS'gridJobIds'
p12
(lp13
S'https://trebuchet.ijs.si:443/arex/Mw6MDmkkl8vnOvrWonLn5monABFKDmABFKDmMfFKDm7MOKDmrU3nDn'
p14
asS'id'
p15
S'./fold9/tocka0.05_1.0_0.6_0.6_8'
p16
sb.