ccopy_reg
_reconstructor
p0
(cjobmanager.common
Job
p1
c__builtin__
object
p2
Ntp3
Rp4
(dp5
S'lastStateChange'
p6
F1574018024.435543
sS'retries'
p7
I2
sS'errors'
p8
I0
sS'state'
p9
S'success'
p10
sS'needs_arcclean'
p11
I00
sS'gridJobIds'
p12
(lp13
S'https://trebuchet.ijs.si:443/arex/ExoNDmxGBqvnOvrWonLn5monABFKDmABFKDmMfFKDmpaFKDmVPasxn'
p14
aS'https://trebuchet.ijs.si:443/arex/0WiMDm3gaqvnOvrWonLn5monABFKDmABFKDmMfFKDm5jFKDm2L45om'
p15
asS'id'
p16
S'./yelp_small/fold6/tocka0.05_1.0_0.6_0.2_8'
p17
sb.