ccopy_reg
_reconstructor
p0
(cjobmanager.common
Job
p1
c__builtin__
object
p2
Ntp3
Rp4
(dp5
S'lastStateChange'
p6
F1574220975.77894
sS'retries'
p7
I1
sS'errors'
p8
I0
sS'state'
p9
S'success'
p10
sS'needs_arcclean'
p11
I00
sS'gridJobIds'
p12
(lp13
S'https://trebuchet.ijs.si:443/arex/HeWNDm1AmqvnOvrWonLn5monABFKDmABFKDmMfFKDm5yFKDm1Cdrun'
p14
aS'https://trebuchet.ijs.si:443/arex/7edNDm4FMrvnOvrWonLn5monABFKDmABFKDmMfFKDmnCGKDmXwLvJo'
p15
asS'id'
p16
S'./yelp_small/fold0/tocka0.6_1.0_0.8_0.2_6'
p17
sb.