ccopy_reg
_reconstructor
p0
(cjobmanager.common
Job
p1
c__builtin__
object
p2
Ntp3
Rp4
(dp5
S'lastStateChange'
p6
F1592652086.635618
sS'retries'
p7
I2
sS'errors'
p8
I0
sS'state'
p9
S'new'
p10
sS'needs_arcclean'
p11
I01
sS'gridJobIds'
p12
(lp13
S'https://maister.hpc-rivr.um.si:443/arex/uH6NDmon94wnQ1W8MmmAVtPoemdcfmABFKDmDyHKDmZEFKDmU7Eafm'
p14
aS'https://maister.hpc-rivr.um.si:443/arex/JnhKDmBp65wnQ1W8MmmAVtPoemdcfmABFKDmoAMKDm6hFKDmG1QIGn'
p15
asS'id'
p16
S'./fold9/eksistencna_kriza0.05_1.0_0.8_0.2_8'
p17
sb.