ccopy_reg
_reconstructor
p0
(cjobmanager.common
Job
p1
c__builtin__
object
p2
Ntp3
Rp4
(dp5
S'lastStateChange'
p6
F1589764112.677414
sS'retries'
p7
I1
sS'errors'
p8
I0
sS'state'
p9
S'success'
p10
sS'needs_arcclean'
p11
I00
sS'gridJobIds'
p12
(lp13
S'https://maister.hpc-rivr.um.si:443/arex/5xpLDmzzltwnQ1W8MmmAVtPoemdcfmABFKDmxtKKDm94mKDmnFW4Sn'
p14
aS'https://nsc.ijs.si:443/arex/pdDLDm78iuwnWiFSGmlJ8khoABFKDmABFKDmlAONDmD1IKDm9eB4Xn'
p15
asS'id'
p16
S'./movie/fold8/eksistencna_kriza0.2_1.0_0.6_1.0_4'
p17
sb.