ccopy_reg
_reconstructor
p0
(cjobmanager.common
Job
p1
c__builtin__
object
p2
Ntp3
Rp4
(dp5
S'lastStateChange'
p6
F1590845000.95974
sS'retries'
p7
I0
sS'errors'
p8
I0
sS'state'
p9
S'success'
p10
sS'needs_arcclean'
p11
I00
sS'gridJobIds'
p12
(lp13
S'https://maister.hpc-rivr.um.si:443/arex/RvXMDm3KDzwnQ1W8MmmAVtPoemdcfmABFKDmO6HKDmhPIKDmGlB7hn'
p14
asS'id'
p15
S'./yelp_small/fold1/nec_rone_0.6_6'
p16
sb.