ccopy_reg
_reconstructor
p0
(cjobmanager.common
Job
p1
c__builtin__
object
p2
Ntp3
Rp4
(dp5
S'lastStateChange'
p6
F1591063700.031006
sS'retries'
p7
I2
sS'errors'
p8
I0
sS'state'
p9
S'new'
p10
sS'needs_arcclean'
p11
I01
sS'gridJobIds'
p12
(lp13
S'https://nsc.ijs.si:443/arex/cFfKDmmYVywnWiFSGmlJ8khoABFKDmABFKDmYpJKDmtyFKDm9k7uRn'
p14
aS'https://nsc.ijs.si:443/arex/I0SKDmPXSzwnWiFSGmlJ8khoABFKDmABFKDmYpJKDmf4GKDmrsZRxm'
p15
asS'id'
p16
S'./fold2/tocka0.0_1'
p17
sb.