ccopy_reg
_reconstructor
p0
(cjobmanager.common
Job
p1
c__builtin__
object
p2
Ntp3
Rp4
(dp5
S'lastStateChange'
p6
F1575345480.607876
sS'retries'
p7
I0
sS'errors'
p8
I0
sS'state'
p9
S'success'
p10
sS'needs_arcclean'
p11
I00
sS'gridJobIds'
p12
(lp13
S'https://maister.hpc-rivr.um.si:443/arex/l4XLDmoPOvvnQ1W8MmmAVtPoemdcfmABFKDm5fVKDmwTFKDmJFR3Do'
p14
asS'id'
p15
S'./stack_big/fold0/tocka0.4_1.0_0.8_0.6_8'
p16
sb.