ccopy_reg
_reconstructor
p0
(cjobmanager.common
Job
p1
c__builtin__
object
p2
Ntp3
Rp4
(dp5
S'lastStateChange'
p6
F1591938949.837701
sS'retries'
p7
I0
sS'errors'
p8
I0
sS'state'
p9
S'success'
p10
sS'needs_arcclean'
p11
I00
sS'gridJobIds'
p12
(lp13
S'https://maister.hpc-rivr.um.si:443/arex/H05LDmbcp3wnQ1W8MmmAVtPoemdcfmABFKDmgyHKDmUCGKDm36RYBo'
p14
asS'id'
p15
S'./mutagenesis/fold4/eksistencna_kriza0.05_1.0_0.6_0.8_2'
p16
sb.