ccopy_reg
_reconstructor
p0
(cjobmanager.common
Job
p1
c__builtin__
object
p2
Ntp3
Rp4
(dp5
S'lastStateChange'
p6
F1592557533.676089
sS'retries'
p7
I2
sS'errors'
p8
I0
sS'state'
p9
S'success'
p10
sS'needs_arcclean'
p11
I00
sS'gridJobIds'
p12
(lp13
S'https://trebuchet.ijs.si:443/arex/p0rNDmAVR6wnOvrWonLn5monABFKDmABFKDmzJKKDmbaGKDmVERsKm'
p14
aS'https://trebuchet.ijs.si:443/arex/zD7NDmXYR6wnOvrWonLn5monABFKDmABFKDmzJKKDmJbGKDmgn4EZn'
p15
aS'https://trebuchet.ijs.si:443/arex/2eoKDmsdR6wnOvrWonLn5monABFKDmABFKDmzJKKDmkbGKDmmOrVln'
p16
asS'id'
p17
S'./carcinogenesis/fold7'
p18
sb.