ccopy_reg
_reconstructor
p0
(cjobmanager.common
Job
p1
c__builtin__
object
p2
Ntp3
Rp4
(dp5
S'lastStateChange'
p6
F1589939841.231176
sS'retries'
p7
I0
sS'errors'
p8
I0
sS'state'
p9
S'success'
p10
sS'needs_arcclean'
p11
I00
sS'gridJobIds'
p12
(lp13
S'https://nsc.ijs.si:443/arex/JB8NDm9XRvwnWiFSGmlJ8khoABFKDmABFKDmlAONDmx4IKDmiOgPym'
p14
asS'id'
p15
S'./yelp_small/fold8'
p16
sb.