ccopy_reg
_reconstructor
p0
(cjobmanager.common
Job
p1
c__builtin__
object
p2
Ntp3
Rp4
(dp5
S'lastStateChange'
p6
F1590841953.9123
sS'retries'
p7
I3
sS'errors'
p8
I0
sS'state'
p9
S'success'
p10
sS'needs_arcclean'
p11
I00
sS'gridJobIds'
p12
(lp13
S'https://maister.hpc-rivr.um.si:443/arex/vjoKDmNXBzwnQ1W8MmmAVtPoemdcfmABFKDmO6HKDmgJIKDmyroFAn'
p14
aS'https://nsc.ijs.si:443/arex/4Q4LDm4gBzwnWiFSGmlJ8khoABFKDmABFKDmYpJKDm8tGKDmZBCZCo'
p15
aS'https://nsc.ijs.si:443/arex/da7NDmo9BzwnWiFSGmlJ8khoABFKDmABFKDmYpJKDmduGKDmAJYz9n'
p16
aS'https://nsc.ijs.si:443/arex/ozxKDmuHDzwnWiFSGmlJ8khoABFKDmABFKDmYpJKDmI0GKDmtBTujn'
p17
asS'id'
p18
S'./yelp_small/fold9/nec_rone_0.05_2'
p19
sb.