ccopy_reg
_reconstructor
p0
(cjobmanager.common
Job
p1
c__builtin__
object
p2
Ntp3
Rp4
(dp5
S'lastStateChange'
p6
F1592567151.483924
sS'retries'
p7
I1
sS'errors'
p8
I0
sS'state'
p9
S'success'
p10
sS'needs_arcclean'
p11
I00
sS'gridJobIds'
p12
(lp13
S'https://trebuchet.ijs.si:443/arex/dUqLDmnXS6wnOvrWonLn5monABFKDmABFKDmzJKKDmdqGKDm91miJn'
p14
aS'https://trebuchet.ijs.si:443/arex/W2qNDmytT6wnOvrWonLn5monABFKDmABFKDmzJKKDmN9GKDmUnFS0n'
p15
asS'id'
p16
S'./mutagenesis/fold8/tree15'
p17
sb.