ccopy_reg
_reconstructor
p0
(cjobmanager.common
Job
p1
c__builtin__
object
p2
Ntp3
Rp4
(dp5
S'lastStateChange'
p6
F1574217066.903508
sS'retries'
p7
I1
sS'errors'
p8
I0
sS'state'
p9
S'success'
p10
sS'needs_arcclean'
p11
I00
sS'gridJobIds'
p12
(lp13
S'https://trebuchet.ijs.si:443/arex/sXrLDmpAiqvnOvrWonLn5monABFKDmABFKDmMfFKDmavFKDmcMlE9n'
p14
aS'https://trebuchet.ijs.si:443/arex/x7YNDmUFKrvnOvrWonLn5monABFKDmABFKDmMfFKDmOCGKDmJKtO6m'
p15
asS'id'
p16
S'./yelp_small/fold1/tocka0.4_1.0_0.8_0.2_8'
p17
sb.