ccopy_reg
_reconstructor
p0
(cjobmanager.common
Job
p1
c__builtin__
object
p2
Ntp3
Rp4
(dp5
S'lastStateChange'
p6
F1575869176.61349
sS'retries'
p7
I1
sS'errors'
p8
I0
sS'state'
p9
S'success'
p10
sS'needs_arcclean'
p11
I00
sS'gridJobIds'
p12
(lp13
S'https://maister.hpc-rivr.um.si:443/arex/ZSxMDmKrNwvnQ1W8MmmAVtPoemdcfmABFKDmMHLKDmUSFKDmOi95An'
p14
aS'https://maister.hpc-rivr.um.si:443/arex/BnPNDmX07wvnQ1W8MmmAVtPoemdcfmABFKDmMHLKDmIGHKDmxJijum'
p15
asS'id'
p16
S'./imdb_big/fold7/tocka0.4_1.0_0.8_0.6_6'
p17
sb.