ccopy_reg
_reconstructor
p0
(cjobmanager.common
Job
p1
c__builtin__
object
p2
Ntp3
Rp4
(dp5
S'lastStateChange'
p6
F1592428734.021763
sS'retries'
p7
I1
sS'errors'
p8
I0
sS'state'
p9
S'success'
p10
sS'needs_arcclean'
p11
I00
sS'gridJobIds'
p12
(lp13
S'https://nsc.ijs.si:443/arex/z8RKDmhPN5wnWiFSGmlJ8khoABFKDmABFKDm2m8WDmH8FKDmIiKJ4m'
p14
aS'https://maister.hpc-rivr.um.si:443/arex/s1MNDmXjQ5wnQ1W8MmmAVtPoemdcfmABFKDmDyHKDm8VFKDmur65wn'
p15
asS'id'
p16
S'./fold3/eksistencna_kriza0.6_1.0_0.8_0.2_2'
p17
sb.