ccopy_reg
_reconstructor
p0
(cjobmanager.common
Job
p1
c__builtin__
object
p2
Ntp3
Rp4
(dp5
S'lastStateChange'
p6
F1591934332.216361
sS'retries'
p7
I0
sS'errors'
p8
I0
sS'state'
p9
S'success'
p10
sS'needs_arcclean'
p11
I00
sS'gridJobIds'
p12
(lp13
S'https://nsc.ijs.si:443/arex/P5BLDmtSl3wnWiFSGmlJ8khoABFKDmABFKDm2m8WDm2BFKDmayL57m'
p14
asS'id'
p15
S'./mutagenesis/fold9/eksistencna_kriza0.4_1.0_0.8_0.8_8'
p16
sb.