ccopy_reg
_reconstructor
p0
(cjobmanager.common
Job
p1
c__builtin__
object
p2
Ntp3
Rp4
(dp5
S'lastStateChange'
p6
F1592651831.830747
sS'retries'
p7
I2
sS'errors'
p8
I0
sS'state'
p9
S'new'
p10
sS'needs_arcclean'
p11
I01
sS'gridJobIds'
p12
(lp13
S'https://maister.hpc-rivr.um.si:443/arex/HZdLDm1k94wnQ1W8MmmAVtPoemdcfmABFKDmDyHKDmgDFKDmSlGtVn'
p14
aS'https://maister.hpc-rivr.um.si:443/arex/HERMDm9i65wnQ1W8MmmAVtPoemdcfmABFKDmoAMKDmChFKDmGkkDWn'
p15
asS'id'
p16
S'./fold9/eksistencna_kriza0.2_1.0_0.6_0.6_4'
p17
sb.