ccopy_reg
_reconstructor
p0
(cjobmanager.common
Job
p1
c__builtin__
object
p2
Ntp3
Rp4
(dp5
S'lastStateChange'
p6
F1592566141.546017
sS'retries'
p7
I1
sS'errors'
p8
I0
sS'state'
p9
S'success'
p10
sS'needs_arcclean'
p11
I00
sS'gridJobIds'
p12
(lp13
S'https://trebuchet.ijs.si:443/arex/y4rNDmbVS6wnOvrWonLn5monABFKDmABFKDmzJKKDmxpGKDmJBe7Qn'
p14
aS'https://trebuchet.ijs.si:443/arex/LmVKDmyrT6wnOvrWonLn5monABFKDmABFKDmzJKKDm67GKDmSs5l5m'
p15
asS'id'
p16
S'./mutagenesis/fold8/tree9'
p17
sb.