ccopy_reg
_reconstructor
p0
(cjobmanager.common
Job
p1
c__builtin__
object
p2
Ntp3
Rp4
(dp5
S'lastStateChange'
p6
F1591984064.187813
sS'retries'
p7
I0
sS'errors'
p8
I0
sS'state'
p9
S'success'
p10
sS'needs_arcclean'
p11
I00
sS'gridJobIds'
p12
(lp13
S'https://nsc.ijs.si:443/arex/V25LDmH213wnWiFSGmlJ8khoABFKDmABFKDm2m8WDmhiFKDmN8IlCo'
p14
asS'id'
p15
S'./fold8/eksistencna_kriza0.2_1.0_1.0_sqrt_2'
p16
sb.