ccopy_reg
_reconstructor
p0
(cjobmanager.common
Job
p1
c__builtin__
object
p2
Ntp3
Rp4
(dp5
S'lastStateChange'
p6
F1592000423.976176
sS'retries'
p7
I1
sS'errors'
p8
I0
sS'state'
p9
S'success'
p10
sS'needs_arcclean'
p11
I00
sS'gridJobIds'
p12
(lp13
S'https://nsc.ijs.si:443/arex/v2JODmdm43wnWiFSGmlJ8khoABFKDmABFKDm2m8WDm2rFKDmgHr8In'
p14
aS'https://nsc.ijs.si:443/arex/xYfLDmVT53wnWiFSGmlJ8khoABFKDmABFKDm2m8WDm6sFKDmWIY5Vn'
p15
asS'id'
p16
S'./carcinogenesis/fold4/eksistencna_kriza0.4_1.0_1.0_sqrt_4'
p17
sb.