ccopy_reg
_reconstructor
p0
(cjobmanager.common
Job
p1
c__builtin__
object
p2
Ntp3
Rp4
(dp5
S'lastStateChange'
p6
F1592572546.727328
sS'retries'
p7
I1
sS'errors'
p8
I0
sS'state'
p9
S'success'
p10
sS'needs_arcclean'
p11
I00
sS'gridJobIds'
p12
(lp13
S'https://trebuchet.ijs.si:443/arex/uDYMDm7tS6wnOvrWonLn5monABFKDmABFKDmzJKKDm0sGKDmx5Iesn'
p14
aS'https://trebuchet.ijs.si:443/arex/gueNDm10T6wnOvrWonLn5monABFKDmABFKDmzJKKDmrDHKDmmN1U0m'
p15
asS'id'
p16
S'./mutagenesis/fold5/tree18'
p17
sb.