ccopy_reg
_reconstructor
p0
(cjobmanager.common
Job
p1
c__builtin__
object
p2
Ntp3
Rp4
(dp5
S'lastStateChange'
p6
F1590841025.762169
sS'retries'
p7
I3
sS'errors'
p8
I0
sS'state'
p9
S'success'
p10
sS'needs_arcclean'
p11
I00
sS'gridJobIds'
p12
(lp13
S'https://maister.hpc-rivr.um.si:443/arex/wWSMDmTXBzwnQ1W8MmmAVtPoemdcfmABFKDmO6HKDmiJIKDmB3X1Vn'
p14
aS'https://nsc.ijs.si:443/arex/CRCLDmZmBzwnWiFSGmlJ8khoABFKDmABFKDmYpJKDmKuGKDmpEpqAo'
p15
aS'https://nsc.ijs.si:443/arex/zaAMDmu9BzwnWiFSGmlJ8khoABFKDmABFKDmYpJKDmfuGKDme8RXnn'
p16
aS'https://nsc.ijs.si:443/arex/MDdLDm0HDzwnWiFSGmlJ8khoABFKDmABFKDmYpJKDmM0GKDmN98fXn'
p17
asS'id'
p18
S'./yelp_small/fold8/nec_rone_0.6_2'
p19
sb.