ccopy_reg
_reconstructor
p0
(cjobmanager.common
Job
p1
c__builtin__
object
p2
Ntp3
Rp4
(dp5
S'lastStateChange'
p6
F1590151623.512409
sS'retries'
p7
I1
sS'errors'
p8
I0
sS'state'
p9
S'success'
p10
sS'needs_arcclean'
p11
I00
sS'gridJobIds'
p12
(lp13
S'https://nsc.ijs.si:443/arex/EsEMDmd2LwwnWiFSGmlJ8khoABFKDmABFKDmZpuNDmY3GKDmVuwium'
p14
asS'id'
p15
S'./basket/fold2/eksistencna_kriza0.2_1.0_0.6_0.8_6'
p16
sb.