ccopy_reg
_reconstructor
p0
(cjobmanager.common
Job
p1
c__builtin__
object
p2
Ntp3
Rp4
(dp5
S'lastStateChange'
p6
F1589944042.431701
sS'retries'
p7
I0
sS'errors'
p8
I0
sS'state'
p9
S'success'
p10
sS'needs_arcclean'
p11
I00
sS'gridJobIds'
p12
(lp13
S'https://maister.hpc-rivr.um.si:443/arex/5aqMDmANRvwnQ1W8MmmAVtPoemdcfmABFKDmO6HKDmaKFKDmog47nm'
p14
aS'https://nsc.ijs.si:443/arex/iNpMDm1WRvwnWiFSGmlJ8khoABFKDmABFKDmlAONDmU4IKDmW9zgBo'
p15
asS'id'
p16
S'./imdb_big/fold4'
p17
sb.