ccopy_reg
_reconstructor
p0
(cjobmanager.common
Job
p1
c__builtin__
object
p2
Ntp3
Rp4
(dp5
S'lastStateChange'
p6
F1574212477.415143
sS'retries'
p7
I1
sS'errors'
p8
I0
sS'state'
p9
S'success'
p10
sS'needs_arcclean'
p11
I00
sS'gridJobIds'
p12
(lp13
S'https://trebuchet.ijs.si:443/arex/h36LDmyVjqvnOvrWonLn5monABFKDmABFKDmMfFKDmiwFKDmZw4NRo'
p14
aS'https://trebuchet.ijs.si:443/arex/hIwMDmzTKrvnOvrWonLn5monABFKDmABFKDmMfFKDmSCGKDmBQ3DEo'
p15
asS'id'
p16
S'./yelp_small/fold1/tocka0.2_1.0_0.8_0.4_4'
p17
sb.