ccopy_reg
_reconstructor
p0
(cjobmanager.common
Job
p1
c__builtin__
object
p2
Ntp3
Rp4
(dp5
S'lastStateChange'
p6
F1575182412.997468
sS'retries'
p7
I1
sS'errors'
p8
I0
sS'state'
p9
S'success'
p10
sS'needs_arcclean'
p11
I00
sS'gridJobIds'
p12
(lp13
S'https://trebuchet.ijs.si:443/arex/UCMLDmH5kuvnOvrWonLn5monABFKDmABFKDmMfFKDm2CHKDmCkb9Oo'
p14
aS'https://maister.hpc-rivr.um.si:443/arex/yZGKDmzDHvvnQ1W8MmmAVtPoemdcfmABFKDm5fVKDm4SFKDmGf5pUm'
p15
asS'id'
p16
S'./stack_big/fold2/tocka0.2_1.0_0.6_0.6_6'
p17
sb.