ccopy_reg
_reconstructor
p0
(cjobmanager.common
Job
p1
c__builtin__
object
p2
Ntp3
Rp4
(dp5
S'lastStateChange'
p6
F1575982266.789215
sS'retries'
p7
I1
sS'errors'
p8
I0
sS'state'
p9
S'success'
p10
sS'needs_arcclean'
p11
I00
sS'gridJobIds'
p12
(lp13
S'https://maister.hpc-rivr.um.si:443/arex/aQzMDmViRwvnQ1W8MmmAVtPoemdcfmABFKDmMHLKDmvuFKDm4UXbKm'
p14
aS'https://maister.hpc-rivr.um.si:443/arex/u3dMDmSHOxvnQ1W8MmmAVtPoemdcfmABFKDmMHLKDmdXHKDmWFIwqm'
p15
asS'id'
p16
S'./imdb_big/fold0/tocka0.05_1.0_1.0_0.8_6'
p17
sb.