ccopy_reg
_reconstructor
p0
(cjobmanager.common
Job
p1
c__builtin__
object
p2
Ntp3
Rp4
(dp5
S'lastStateChange'
p6
F1592467476.768989
sS'retries'
p7
I1
sS'errors'
p8
I0
sS'state'
p9
S'new'
p10
sS'needs_arcclean'
p11
I01
sS'gridJobIds'
p12
(lp13
S'https://trebuchet.ijs.si:443/arex/u3WMDmfgL5wnOvrWonLn5monABFKDmABFKDmzJKKDmEFFKDmyK2EQm'
p14
asS'id'
p15
S'./fold6/eksistencna_kriza0.05_1.0_0.8_0.2_4'
p16
sb.