ccopy_reg
_reconstructor
p0
(cjobmanager.common
Job
p1
c__builtin__
object
p2
Ntp3
Rp4
(dp5
S'lastStateChange'
p6
F1589766937.417711
sS'retries'
p7
I1
sS'errors'
p8
I0
sS'state'
p9
S'success'
p10
sS'needs_arcclean'
p11
I00
sS'gridJobIds'
p12
(lp13
S'https://maister.hpc-rivr.um.si:443/arex/hXTMDmqOrtwnQ1W8MmmAVtPoemdcfmABFKDmxtKKDms8mKDmIXl16m'
p14
aS'https://nsc.ijs.si:443/arex/rzWLDmIIjuwnWiFSGmlJ8khoABFKDmABFKDmlAONDmP2IKDmUxOgCn'
p15
asS'id'
p16
S'./imdb_big/fold9/eksistencna_kriza0.05_1.0_0.6_sqrt_2'
p17
sb.