ccopy_reg
_reconstructor
p0
(cjobmanager.common
Job
p1
c__builtin__
object
p2
Ntp3
Rp4
(dp5
S'lastStateChange'
p6
F1590960010.648777
sS'retries'
p7
I1
sS'errors'
p8
I0
sS'state'
p9
S'new'
p10
sS'needs_arcclean'
p11
I01
sS'gridJobIds'
p12
(lp13
S'https://nsc.ijs.si:443/arex/6cFMDmnXsywnWiFSGmlJ8khoABFKDmABFKDmYpJKDmiEGKDmQQBagm'
p14
asS'id'
p15
S'./webkb/fold3/tocka0.0_1'
p16
sb.