ccopy_reg
_reconstructor
p0
(cjobmanager.common
Job
p1
c__builtin__
object
p2
Ntp3
Rp4
(dp5
S'lastStateChange'
p6
F1592556847.352283
sS'retries'
p7
I2
sS'errors'
p8
I0
sS'state'
p9
S'success'
p10
sS'needs_arcclean'
p11
I00
sS'gridJobIds'
p12
(lp13
S'https://trebuchet.ijs.si:443/arex/SG8MDmbUR6wnOvrWonLn5monABFKDmABFKDmzJKKDmMaGKDmljoYVo'
p14
aS'https://trebuchet.ijs.si:443/arex/vodKDmyXR6wnOvrWonLn5monABFKDmABFKDmzJKKDm7aGKDmGht3Lm'
p15
aS'https://trebuchet.ijs.si:443/arex/4TPODmFdR6wnOvrWonLn5monABFKDmABFKDmzJKKDmSbGKDmjBTybn'
p16
asS'id'
p17
S'./mutagenesis/fold8'
p18
sb.