ccopy_reg
_reconstructor
p0
(cjobmanager.common
Job
p1
c__builtin__
object
p2
Ntp3
Rp4
(dp5
S'lastStateChange'
p6
F1589764486.973733
sS'retries'
p7
I1
sS'errors'
p8
I0
sS'state'
p9
S'success'
p10
sS'needs_arcclean'
p11
I00
sS'gridJobIds'
p12
(lp13
S'https://maister.hpc-rivr.um.si:443/arex/9qnLDmlzntwnQ1W8MmmAVtPoemdcfmABFKDmxtKKDm76mKDmSDnZXn'
p14
aS'https://nsc.ijs.si:443/arex/JM0KDmHCjuwnWiFSGmlJ8khoABFKDmABFKDmlAONDm41IKDmIhTOSm'
p15
asS'id'
p16
S'./movie/fold5/eksistencna_kriza0.05_1.0_0.8_0.2_6'
p17
sb.