ccopy_reg
_reconstructor
p0
(cjobmanager.common
Job
p1
c__builtin__
object
p2
Ntp3
Rp4
(dp5
S'lastStateChange'
p6
F1575891426.270829
sS'retries'
p7
I1
sS'errors'
p8
I0
sS'state'
p9
S'success'
p10
sS'needs_arcclean'
p11
I00
sS'gridJobIds'
p12
(lp13
S'https://maister.hpc-rivr.um.si:443/arex/IJoNDmLLjwvnQ1W8MmmAVtPoemdcfmABFKDmMHLKDmChGKDmO76RJo'
p14
aS'https://maister.hpc-rivr.um.si:443/arex/I5ALDm2oVxvnQ1W8MmmAVtPoemdcfmABFKDmMHLKDmKZHKDmHt3xun'
p15
asS'id'
p16
S'./imdb_big/fold7/tocka0.4_1.0_1.0_sqrt_8'
p17
sb.