ccopy_reg
_reconstructor
p0
(cjobmanager.common
Job
p1
c__builtin__
object
p2
Ntp3
Rp4
(dp5
S'lastStateChange'
p6
F1575286970.933006
sS'retries'
p7
I0
sS'errors'
p8
I0
sS'state'
p9
S'success'
p10
sS'needs_arcclean'
p11
I00
sS'gridJobIds'
p12
(lp13
S'https://maister.hpc-rivr.um.si:443/arex/2eNNDmrhvvvnQ1W8MmmAVtPoemdcfmABFKDm5fVKDmqmFKDmv1L2un'
p14
asS'id'
p15
S'./movie/fold7/tocka0.05_1.0_1.0_1.0_2'
p16
sb.