ccopy_reg
_reconstructor
p0
(cjobmanager.common
Job
p1
c__builtin__
object
p2
Ntp3
Rp4
(dp5
S'lastStateChange'
p6
F1590573823.416665
sS'retries'
p7
I1
sS'errors'
p8
I0
sS'state'
p9
S'success'
p10
sS'needs_arcclean'
p11
I00
sS'gridJobIds'
p12
(lp13
S'https://nsc.ijs.si:443/arex/y3MKDmJL1xwnWiFSGmlJ8khoABFKDmABFKDmYpJKDmSbFKDmV9yHTn'
p14
aS'https://maister.hpc-rivr.um.si:443/arex/VmnNDmYz7xwnQ1W8MmmAVtPoemdcfmABFKDmO6HKDmKIHKDm7ZdJ1n'
p15
asS'id'
p16
S'./fold6/eksistencna_kriza0.6_1.0_1.0_sqrt_4'
p17
sb.