ccopy_reg
_reconstructor
p0
(cjobmanager.common
Job
p1
c__builtin__
object
p2
Ntp3
Rp4
(dp5
S'lastStateChange'
p6
F1592360333.872608
sS'retries'
p7
I1
sS'errors'
p8
I0
sS'state'
p9
S'success'
p10
sS'needs_arcclean'
p11
I00
sS'gridJobIds'
p12
(lp13
S'https://trebuchet.ijs.si:443/arex/Gy4NDmDW94wnOvrWonLn5monABFKDmABFKDmzJKKDmZBFKDmOCsV4n'
p14
aS'https://maister.hpc-rivr.um.si:443/arex/k2JLDmLGA5wnQ1W8MmmAVtPoemdcfmABFKDmDyHKDm3JFKDm8n07gn'
p15
asS'id'
p16
S'./fold9/eksistencna_kriza0.6_1.0_0.8_sqrt_6'
p17
sb.