ccopy_reg
_reconstructor
p0
(cjobmanager.common
Job
p1
c__builtin__
object
p2
Ntp3
Rp4
(dp5
S'lastStateChange'
p6
F1592594239.441764
sS'retries'
p7
I3
sS'errors'
p8
I0
sS'state'
p9
S'success'
p10
sS'needs_arcclean'
p11
I00
sS'gridJobIds'
p12
(lp13
S'https://trebuchet.ijs.si:443/arex/RLZLDmYNS6wnOvrWonLn5monABFKDmABFKDmzJKKDmCoGKDmiJ0c5m'
p14
aS'https://trebuchet.ijs.si:443/arex/zf5MDmhCT6wnOvrWonLn5monABFKDmABFKDmzJKKDmfyGKDmPV7DWm'
p15
aS'https://trebuchet.ijs.si:443/arex/0dlLDm4RT6wnOvrWonLn5monABFKDmABFKDmzJKKDm02GKDmLHWpHn'
p16
aS'https://trebuchet.ijs.si:443/arex/CLGNDmJhT6wnOvrWonLn5monABFKDmABFKDmzJKKDmy4GKDmBuvpLm'
p17
asS'id'
p18
S'./mutagenesis/fold0'
p19
sb.