ccopy_reg
_reconstructor
p0
(cjobmanager.common
Job
p1
c__builtin__
object
p2
Ntp3
Rp4
(dp5
S'lastStateChange'
p6
F1590839020.28914
sS'retries'
p7
I2
sS'errors'
p8
I0
sS'state'
p9
S'success'
p10
sS'needs_arcclean'
p11
I00
sS'gridJobIds'
p12
(lp13
S'https://maister.hpc-rivr.um.si:443/arex/uSANDmIYBzwnQ1W8MmmAVtPoemdcfmABFKDmO6HKDm0JIKDmTf2Kun'
p14
aS'https://nsc.ijs.si:443/arex/xLuLDmpACzwnWiFSGmlJ8khoABFKDmABFKDmYpJKDmxuGKDmmyx4Jn'
p15
aS'https://maister.hpc-rivr.um.si:443/arex/zSrLDm7IDzwnQ1W8MmmAVtPoemdcfmABFKDmO6HKDm6OIKDmeku4Mn'
p16
asS'id'
p17
S'./yelp_small/fold6/nec_rone_0.4_2'
p18
sb.