ccopy_reg
_reconstructor
p0
(cjobmanager.common
Job
p1
c__builtin__
object
p2
Ntp3
Rp4
(dp5
S'lastStateChange'
p6
F1575845361.257451
sS'retries'
p7
I1
sS'errors'
p8
I0
sS'state'
p9
S'success'
p10
sS'needs_arcclean'
p11
I00
sS'gridJobIds'
p12
(lp13
S'https://maister.hpc-rivr.um.si:443/arex/lKALDm00MwvnQ1W8MmmAVtPoemdcfmABFKDmMHLKDmnMFKDmoOMfpn'
p14
aS'https://maister.hpc-rivr.um.si:443/arex/7JSLDmwV7wvnQ1W8MmmAVtPoemdcfmABFKDmMHLKDm6AHKDmmp0Rrm'
p15
asS'id'
p16
S'./imdb_big/fold9/tocka0.2_1.0_0.8_1.0_6'
p17
sb.