ccopy_reg
_reconstructor
p0
(cjobmanager.common
Job
p1
c__builtin__
object
p2
Ntp3
Rp4
(dp5
S'lastStateChange'
p6
F1575634042.346201
sS'retries'
p7
I0
sS'errors'
p8
I0
sS'state'
p9
S'success'
p10
sS'needs_arcclean'
p11
I00
sS'gridJobIds'
p12
(lp13
S'https://maister.hpc-rivr.um.si:443/arex/3j3LDmJujwvnQ1W8MmmAVtPoemdcfmABFKDmMHLKDmHmGKDmEpcrDn'
p14
asS'id'
p15
S'./imdb_big/fold6/tocka0.05_1.0_1.0_0.4_4'
p16
sb.