ccopy_reg
_reconstructor
p0
(cjobmanager.common
Job
p1
c__builtin__
object
p2
Ntp3
Rp4
(dp5
S'lastStateChange'
p6
F1575810538.375678
sS'retries'
p7
I1
sS'errors'
p8
I0
sS'state'
p9
S'success'
p10
sS'needs_arcclean'
p11
I00
sS'gridJobIds'
p12
(lp13
S'https://maister.hpc-rivr.um.si:443/arex/GlTMDml0MwvnQ1W8MmmAVtPoemdcfmABFKDmMHLKDmjMFKDm5C5x0m'
p14
aS'https://maister.hpc-rivr.um.si:443/arex/3mSNDmoV7wvnQ1W8MmmAVtPoemdcfmABFKDmMHLKDm3AHKDmqAiY3m'
p15
asS'id'
p16
S'./imdb_big/fold9/tocka0.2_1.0_0.8_sqrt_6'
p17
sb.