ccopy_reg
_reconstructor
p0
(cjobmanager.common
Job
p1
c__builtin__
object
p2
Ntp3
Rp4
(dp5
S'lastStateChange'
p6
F1592566979.805693
sS'retries'
p7
I1
sS'errors'
p8
I0
sS'state'
p9
S'success'
p10
sS'needs_arcclean'
p11
I00
sS'gridJobIds'
p12
(lp13
S'https://trebuchet.ijs.si:443/arex/OoRNDm4WS6wnOvrWonLn5monABFKDmABFKDmzJKKDmPqGKDmL9bv1m'
p14
aS'https://trebuchet.ijs.si:443/arex/1QjMDmLtT6wnOvrWonLn5monABFKDmABFKDmzJKKDmx8GKDm83TLhm'
p15
asS'id'
p16
S'./mutagenesis/fold8/tree28'
p17
sb.