ccopy_reg
_reconstructor
p0
(cjobmanager.common
Job
p1
c__builtin__
object
p2
Ntp3
Rp4
(dp5
S'lastStateChange'
p6
F1590844251.689978
sS'retries'
p7
I1
sS'errors'
p8
I0
sS'state'
p9
S'success'
p10
sS'needs_arcclean'
p11
I00
sS'gridJobIds'
p12
(lp13
S'https://nsc.ijs.si:443/arex/OVgKDmrBCzwnWiFSGmlJ8khoABFKDmABFKDmYpJKDmHvGKDmM39jHm'
p14
aS'https://maister.hpc-rivr.um.si:443/arex/Cg4MDm2JDzwnQ1W8MmmAVtPoemdcfmABFKDmO6HKDmQPIKDmEay2Um'
p15
asS'id'
p16
S'./yelp_small/fold4/nec_rone_0.05_2'
p17
sb.